   1              	 .syntax unified
   2              	 .cpu cortex-m4
   3              	 .eabi_attribute 27,3
   4              	 .fpu fpv4-sp-d16
   5              	 .eabi_attribute 20,1
   6              	 .eabi_attribute 21,1
   7              	 .eabi_attribute 23,3
   8              	 .eabi_attribute 24,1
   9              	 .eabi_attribute 25,1
  10              	 .eabi_attribute 26,1
  11              	 .eabi_attribute 30,6
  12              	 .eabi_attribute 34,1
  13              	 .eabi_attribute 18,4
  14              	 .thumb
  15              	 .file "uart_config.c"
  16              	 .text
  17              	.Ltext0:
  18              	 .cfi_sections .debug_frame
  19              	 .section .text.UART_CONFIG_GetAppVersion,"ax",%progbits
  20              	 .align 2
  21              	 .global UART_CONFIG_GetAppVersion
  22              	 .thumb
  23              	 .thumb_func
  25              	UART_CONFIG_GetAppVersion:
  26              	.LFB218:
  27              	 .file 1 "../Dave/Generated/UART_CONFIG/uart_config.c"
   1:../Dave/Generated/UART_CONFIG/uart_config.c **** /**
   2:../Dave/Generated/UART_CONFIG/uart_config.c ****  * @file uart_config.c
   3:../Dave/Generated/UART_CONFIG/uart_config.c ****  * @date 2017-11-10
   4:../Dave/Generated/UART_CONFIG/uart_config.c ****  *
   5:../Dave/Generated/UART_CONFIG/uart_config.c ****  * NOTE:
   6:../Dave/Generated/UART_CONFIG/uart_config.c ****  * This file is generated by DAVE-4. Any manual modification done to this file will be lost when th
   7:../Dave/Generated/UART_CONFIG/uart_config.c ****  * regenerated.
   8:../Dave/Generated/UART_CONFIG/uart_config.c ****  *
   9:../Dave/Generated/UART_CONFIG/uart_config.c ****  * @cond
  10:../Dave/Generated/UART_CONFIG/uart_config.c ****  **************************************************************************************************
  11:../Dave/Generated/UART_CONFIG/uart_config.c ****  * UART_CONFIG v4.0.10 - Configures a USIC channel to perform transmit & receive operations using U
  12:../Dave/Generated/UART_CONFIG/uart_config.c ****  *
  13:../Dave/Generated/UART_CONFIG/uart_config.c ****  * Copyright (c) 2015-2017, Infineon Technologies AG
  14:../Dave/Generated/UART_CONFIG/uart_config.c ****  * All rights reserved.
  15:../Dave/Generated/UART_CONFIG/uart_config.c ****  *
  16:../Dave/Generated/UART_CONFIG/uart_config.c ****  * Redistribution and use in source and binary forms, with or without modification,are permitted pr
  17:../Dave/Generated/UART_CONFIG/uart_config.c ****  * following conditions are met:
  18:../Dave/Generated/UART_CONFIG/uart_config.c ****  *
  19:../Dave/Generated/UART_CONFIG/uart_config.c ****  *   Redistributions of source code must retain the above copyright notice, this list of conditions
  20:../Dave/Generated/UART_CONFIG/uart_config.c ****  *   disclaimer.
  21:../Dave/Generated/UART_CONFIG/uart_config.c ****  *
  22:../Dave/Generated/UART_CONFIG/uart_config.c ****  *   Redistributions in binary form must reproduce the above copyright notice, this list of conditi
  23:../Dave/Generated/UART_CONFIG/uart_config.c ****  *   following disclaimer in the documentation and/or other materials provided with the distributio
  24:../Dave/Generated/UART_CONFIG/uart_config.c ****  *
  25:../Dave/Generated/UART_CONFIG/uart_config.c ****  *   Neither the name of the copyright holders nor the names of its contributors may be used to end
  26:../Dave/Generated/UART_CONFIG/uart_config.c ****  *   products derived from this software without specific prior written permission.
  27:../Dave/Generated/UART_CONFIG/uart_config.c ****  *
  28:../Dave/Generated/UART_CONFIG/uart_config.c ****  * THIS SOFTWARE IS PROVIDED BY THE COPYRIGHT HOLDERS AND CONTRIBUTORS "AS IS" AND ANY EXPRESS OR I
  29:../Dave/Generated/UART_CONFIG/uart_config.c ****  * INCLUDING, BUT NOT LIMITED TO, THE IMPLIED WARRANTIES OF MERCHANTABILITY AND FITNESS FOR A PARTI
  30:../Dave/Generated/UART_CONFIG/uart_config.c ****  * DISCLAIMED. IN NO EVENT SHALL THE COPYRIGHT HOLDER OR CONTRIBUTORS BE LIABLE  FOR ANY DIRECT, IN
  31:../Dave/Generated/UART_CONFIG/uart_config.c ****  * SPECIAL, EXEMPLARY, OR CONSEQUENTIAL DAMAGES (INCLUDING, BUT NOT LIMITED TO, PROCUREMENT OF SUBS
  32:../Dave/Generated/UART_CONFIG/uart_config.c ****  * SERVICES; LOSS OF USE, DATA, OR PROFITS; OR BUSINESS INTERRUPTION) HOWEVER CAUSED AND ON ANY THE
  33:../Dave/Generated/UART_CONFIG/uart_config.c ****  * WHETHER IN CONTRACT, STRICT LIABILITY,OR TORT (INCLUDING NEGLIGENCE OR OTHERWISE) ARISING IN ANY
  34:../Dave/Generated/UART_CONFIG/uart_config.c ****  * USE OF THIS SOFTWARE, EVEN IF ADVISED OF THE POSSIBILITY OF SUCH DAMAGE.
  35:../Dave/Generated/UART_CONFIG/uart_config.c ****  *
  36:../Dave/Generated/UART_CONFIG/uart_config.c ****  * To improve the quality of the software, users are encouraged to share modifications, enhancement
  37:../Dave/Generated/UART_CONFIG/uart_config.c ****  * with Infineon Technologies AG (dave@infineon.com).
  38:../Dave/Generated/UART_CONFIG/uart_config.c ****  **************************************************************************************************
  39:../Dave/Generated/UART_CONFIG/uart_config.c ****  *
  40:../Dave/Generated/UART_CONFIG/uart_config.c ****  * Change History
  41:../Dave/Generated/UART_CONFIG/uart_config.c ****  * --------------
  42:../Dave/Generated/UART_CONFIG/uart_config.c ****  *
  43:../Dave/Generated/UART_CONFIG/uart_config.c ****  * 2015-07-09:
  44:../Dave/Generated/UART_CONFIG/uart_config.c ****  *     - Initial version for DAVEv4
  45:../Dave/Generated/UART_CONFIG/uart_config.c ****  *
  46:../Dave/Generated/UART_CONFIG/uart_config.c ****  * 2017-11-10:
  47:../Dave/Generated/UART_CONFIG/uart_config.c ****  *     - Renamed UART_CONFIG_t to UART_CH_CONFIG_t to avoid clash when using simultaneously UART an
  48:../Dave/Generated/UART_CONFIG/uart_config.c ****  *
  49:../Dave/Generated/UART_CONFIG/uart_config.c ****  * @endcond
  50:../Dave/Generated/UART_CONFIG/uart_config.c ****  */
  51:../Dave/Generated/UART_CONFIG/uart_config.c **** 
  52:../Dave/Generated/UART_CONFIG/uart_config.c **** /**************************************************************************************************
  53:../Dave/Generated/UART_CONFIG/uart_config.c ****  * HEADER FILES
  54:../Dave/Generated/UART_CONFIG/uart_config.c ****  **************************************************************************************************
  55:../Dave/Generated/UART_CONFIG/uart_config.c **** #include "uart_config.h"
  56:../Dave/Generated/UART_CONFIG/uart_config.c **** 
  57:../Dave/Generated/UART_CONFIG/uart_config.c **** /**************************************************************************************************
  58:../Dave/Generated/UART_CONFIG/uart_config.c ****  * API IMPLEMENTATION
  59:../Dave/Generated/UART_CONFIG/uart_config.c ****  **************************************************************************************************
  60:../Dave/Generated/UART_CONFIG/uart_config.c **** 
  61:../Dave/Generated/UART_CONFIG/uart_config.c **** /**
  62:../Dave/Generated/UART_CONFIG/uart_config.c ****  * @brief Get the UART_CONFIG APP version.
  63:../Dave/Generated/UART_CONFIG/uart_config.c ****  * @return DAVE_APP_VERSION_t APP version information (major, minor and patch number)
  64:../Dave/Generated/UART_CONFIG/uart_config.c ****  *
  65:../Dave/Generated/UART_CONFIG/uart_config.c ****  */
  66:../Dave/Generated/UART_CONFIG/uart_config.c **** DAVE_APP_VERSION_t UART_CONFIG_GetAppVersion()
  67:../Dave/Generated/UART_CONFIG/uart_config.c **** {
  28              	 .loc 1 67 0
  29              	 .cfi_startproc
  30              	 
  31              	 
  32              	 
  33 0000 80B4     	 push {r7}
  34              	.LCFI0:
  35              	 .cfi_def_cfa_offset 4
  36              	 .cfi_offset 7,-4
  37 0002 83B0     	 sub sp,sp,#12
  38              	.LCFI1:
  39              	 .cfi_def_cfa_offset 16
  40 0004 00AF     	 add r7,sp,#0
  41              	.LCFI2:
  42              	 .cfi_def_cfa_register 7
  68:../Dave/Generated/UART_CONFIG/uart_config.c ****   DAVE_APP_VERSION_t version;
  69:../Dave/Generated/UART_CONFIG/uart_config.c **** 
  70:../Dave/Generated/UART_CONFIG/uart_config.c ****   version.major = UART_CONFIG_MAJOR_VERSION;
  43              	 .loc 1 70 0
  44 0006 0423     	 movs r3,#4
  45 0008 3B70     	 strb r3,[r7]
  71:../Dave/Generated/UART_CONFIG/uart_config.c ****   version.minor = UART_CONFIG_MINOR_VERSION;
  46              	 .loc 1 71 0
  47 000a 0023     	 movs r3,#0
  48 000c 7B70     	 strb r3,[r7,#1]
  72:../Dave/Generated/UART_CONFIG/uart_config.c ****   version.patch = UART_CONFIG_PATCH_VERSION;
  49              	 .loc 1 72 0
  50 000e 0A23     	 movs r3,#10
  51 0010 BB70     	 strb r3,[r7,#2]
  73:../Dave/Generated/UART_CONFIG/uart_config.c **** 
  74:../Dave/Generated/UART_CONFIG/uart_config.c ****   return version;
  52              	 .loc 1 74 0
  53 0012 3B1D     	 adds r3,r7,#4
  54 0014 3A46     	 mov r2,r7
  55 0016 1268     	 ldr r2,[r2]
  56 0018 1146     	 mov r1,r2
  57 001a 1980     	 strh r1,[r3]
  58 001c 0233     	 adds r3,r3,#2
  59 001e 120C     	 lsrs r2,r2,#16
  60 0020 1A70     	 strb r2,[r3]
  61 0022 0023     	 movs r3,#0
  62 0024 3A79     	 ldrb r2,[r7,#4]
  63 0026 62F30703 	 bfi r3,r2,#0,#8
  64 002a 7A79     	 ldrb r2,[r7,#5]
  65 002c 62F30F23 	 bfi r3,r2,#8,#8
  66 0030 BA79     	 ldrb r2,[r7,#6]
  67 0032 62F31743 	 bfi r3,r2,#16,#8
  75:../Dave/Generated/UART_CONFIG/uart_config.c **** }
  68              	 .loc 1 75 0
  69 0036 1846     	 mov r0,r3
  70 0038 0C37     	 adds r7,r7,#12
  71              	.LCFI3:
  72              	 .cfi_def_cfa_offset 4
  73 003a BD46     	 mov sp,r7
  74              	.LCFI4:
  75              	 .cfi_def_cfa_register 13
  76              	 
  77 003c 5DF8047B 	 ldr r7,[sp],#4
  78              	.LCFI5:
  79              	 .cfi_restore 7
  80              	 .cfi_def_cfa_offset 0
  81 0040 7047     	 bx lr
  82              	 .cfi_endproc
  83              	.LFE218:
  85 0042 00BF     	 .section .text.UART_CONFIG_Init,"ax",%progbits
  86              	 .align 2
  87              	 .global UART_CONFIG_Init
  88              	 .thumb
  89              	 .thumb_func
  91              	UART_CONFIG_Init:
  92              	.LFB219:
  76:../Dave/Generated/UART_CONFIG/uart_config.c **** 
  77:../Dave/Generated/UART_CONFIG/uart_config.c **** /**
  78:../Dave/Generated/UART_CONFIG/uart_config.c ****  * @brief Function to initialize the UART module as per the configuration made
  79:../Dave/Generated/UART_CONFIG/uart_config.c ****  * in GUI.
  80:../Dave/Generated/UART_CONFIG/uart_config.c ****  * @param handle Pointer to static content of APP configuration.
  81:../Dave/Generated/UART_CONFIG/uart_config.c ****  * @return UART_CONFIG_STATUS_t: Status of UART driver initialization.\n
  82:../Dave/Generated/UART_CONFIG/uart_config.c ****  * @ref UART_CONFIG_STATUS_SUCCESS - on successful initialization.\n
  83:../Dave/Generated/UART_CONFIG/uart_config.c ****  * @ref UART_CONFIG_STATUS_FAILURE - if initialization fails.\n
  84:../Dave/Generated/UART_CONFIG/uart_config.c ****  */
  85:../Dave/Generated/UART_CONFIG/uart_config.c **** UART_CONFIG_STATUS_t UART_CONFIG_Init(const UART_CH_CONFIG_t *const handle)
  86:../Dave/Generated/UART_CONFIG/uart_config.c **** {
  93              	 .loc 1 86 0
  94              	 .cfi_startproc
  95              	 
  96              	 
  97 0000 80B5     	 push {r7,lr}
  98              	.LCFI6:
  99              	 .cfi_def_cfa_offset 8
 100              	 .cfi_offset 7,-8
 101              	 .cfi_offset 14,-4
 102 0002 84B0     	 sub sp,sp,#16
 103              	.LCFI7:
 104              	 .cfi_def_cfa_offset 24
 105 0004 00AF     	 add r7,sp,#0
 106              	.LCFI8:
 107              	 .cfi_def_cfa_register 7
 108 0006 7860     	 str r0,[r7,#4]
  87:../Dave/Generated/UART_CONFIG/uart_config.c ****   UART_CONFIG_STATUS_t status;
  88:../Dave/Generated/UART_CONFIG/uart_config.c ****   XMC_ASSERT("UART_CONFIG APP handle function pointer uninitialized", (((handle != NULL) &&
  89:../Dave/Generated/UART_CONFIG/uart_config.c ****       (handle->config != NULL)) && ((handle->config->uart_config_init != NULL))))
  90:../Dave/Generated/UART_CONFIG/uart_config.c **** 
  91:../Dave/Generated/UART_CONFIG/uart_config.c ****   /* Initialize the multiplexers required for UART configuration */
  92:../Dave/Generated/UART_CONFIG/uart_config.c ****   handle->config->uart_config_init();
 109              	 .loc 1 92 0
 110 0008 7B68     	 ldr r3,[r7,#4]
 111 000a 5B68     	 ldr r3,[r3,#4]
 112 000c 9B68     	 ldr r3,[r3,#8]
 113 000e 9847     	 blx r3
  93:../Dave/Generated/UART_CONFIG/uart_config.c ****   status = UART_CONFIG_STATUS_SUCCESS;
 114              	 .loc 1 93 0
 115 0010 0023     	 movs r3,#0
 116 0012 FB73     	 strb r3,[r7,#15]
  94:../Dave/Generated/UART_CONFIG/uart_config.c **** 
  95:../Dave/Generated/UART_CONFIG/uart_config.c ****   return status;
 117              	 .loc 1 95 0
 118 0014 FB7B     	 ldrb r3,[r7,#15]
  96:../Dave/Generated/UART_CONFIG/uart_config.c **** }
 119              	 .loc 1 96 0
 120 0016 1846     	 mov r0,r3
 121 0018 1037     	 adds r7,r7,#16
 122              	.LCFI9:
 123              	 .cfi_def_cfa_offset 8
 124 001a BD46     	 mov sp,r7
 125              	.LCFI10:
 126              	 .cfi_def_cfa_register 13
 127              	 
 128 001c 80BD     	 pop {r7,pc}
 129              	 .cfi_endproc
 130              	.LFE219:
 132 001e 00BF     	 .text
 133              	.Letext0:
 134              	 .file 2 "c:\\users\\pescatore\\switchdrive\\private\\konzept\\mcu for gate driver\\dave_4-4-2_64bit_2018-02-23\\dave-ide-4.4.2-64bit\\eclipse\\arm-gcc-49\\arm-none-eabi\\include\\machine\\_default_types.h"
 135              	 .file 3 "c:\\users\\pescatore\\switchdrive\\private\\konzept\\mcu for gate driver\\dave_4-4-2_64bit_2018-02-23\\dave-ide-4.4.2-64bit\\eclipse\\arm-gcc-49\\arm-none-eabi\\include\\stdint.h"
 136              	 .file 4 "F:/GitHub Projects/FH Luzern/BAT/BAT/Libraries/XMCLib/inc/xmc_usic.h"
 137              	 .file 5 "F:/GitHub Projects/FH Luzern/BAT/BAT/Libraries/XMCLib/inc/xmc_uart.h"
 138              	 .file 6 "F:/GitHub Projects/FH Luzern/BAT/BAT/Dave/Generated/DAVE_common.h"
 139              	 .file 7 "../Dave/Generated/UART_CONFIG/uart_config.h"
 140              	 .file 8 "F:/GitHub Projects/FH Luzern/BAT/BAT/Libraries/CMSIS/Include/core_cm4.h"