   1              	 .syntax unified
   2              	 .cpu cortex-m4
   3              	 .eabi_attribute 27,3
   4              	 .fpu fpv4-sp-d16
   5              	 .eabi_attribute 20,1
   6              	 .eabi_attribute 21,1
   7              	 .eabi_attribute 23,3
   8              	 .eabi_attribute 24,1
   9              	 .eabi_attribute 25,1
  10              	 .eabi_attribute 26,1
  11              	 .eabi_attribute 30,6
  12              	 .eabi_attribute 34,1
  13              	 .eabi_attribute 18,4
  14              	 .thumb
  15              	 .file "automation.c"
  16              	 .text
  17              	.Ltext0:
  18              	 .cfi_sections .debug_frame
  19              	 .section .text.AUTOMATION_WriteBit,"ax",%progbits
  20              	 .align 2
  21              	 .thumb
  22              	 .thumb_func
  24              	AUTOMATION_WriteBit:
  25              	.LFB135:
  26              	 .file 1 "../Dave/Generated/AUTOMATION/automation.c"
   1:../Dave/Generated/AUTOMATION/automation.c **** /**
   2:../Dave/Generated/AUTOMATION/automation.c ****  * @file automation.c
   3:../Dave/Generated/AUTOMATION/automation.c ****  * @date 2015-10-08
   4:../Dave/Generated/AUTOMATION/automation.c ****  *
   5:../Dave/Generated/AUTOMATION/automation.c ****  * NOTE:
   6:../Dave/Generated/AUTOMATION/automation.c ****  * This file is generated by DAVE. Any manual modification done to this file will be lost when the 
   7:../Dave/Generated/AUTOMATION/automation.c ****  *
   8:../Dave/Generated/AUTOMATION/automation.c ****  * @cond
   9:../Dave/Generated/AUTOMATION/automation.c ****  **************************************************************************************************
  10:../Dave/Generated/AUTOMATION/automation.c ****  * AUTOMATION v4.0.9 - Provides mechanism to connect two APPs using function block processor.
  11:../Dave/Generated/AUTOMATION/automation.c ****  * This supports online parameter update and error logging.  This consumes System Timer APP and
  12:../Dave/Generated/AUTOMATION/automation.c ****  * provides task registration feature. It also provides state machine.
  13:../Dave/Generated/AUTOMATION/automation.c ****  *
  14:../Dave/Generated/AUTOMATION/automation.c ****  * Copyright (c) 2015, Infineon Technologies AG
  15:../Dave/Generated/AUTOMATION/automation.c ****  * All rights reserved.
  16:../Dave/Generated/AUTOMATION/automation.c ****  *
  17:../Dave/Generated/AUTOMATION/automation.c ****  * Redistribution and use in source and binary forms, with or without modification,are permitted pr
  18:../Dave/Generated/AUTOMATION/automation.c ****  * following conditions are met:
  19:../Dave/Generated/AUTOMATION/automation.c ****  *
  20:../Dave/Generated/AUTOMATION/automation.c ****  *   Redistributions of source code must retain the above copyright notice, this list of conditions
  21:../Dave/Generated/AUTOMATION/automation.c ****  *   disclaimer.
  22:../Dave/Generated/AUTOMATION/automation.c ****  *
  23:../Dave/Generated/AUTOMATION/automation.c ****  *   Redistributions in binary form must reproduce the above copyright notice, this list of conditi
  24:../Dave/Generated/AUTOMATION/automation.c ****  *   following disclaimer in the documentation and/or other materials provided with the distributio
  25:../Dave/Generated/AUTOMATION/automation.c ****  *
  26:../Dave/Generated/AUTOMATION/automation.c ****  *   Neither the name of the copyright holders nor the names of its contributors may be used to end
  27:../Dave/Generated/AUTOMATION/automation.c ****  *   products derived from this software without specific prior written permission.
  28:../Dave/Generated/AUTOMATION/automation.c ****  *
  29:../Dave/Generated/AUTOMATION/automation.c ****  * THIS SOFTWARE IS PROVIDED BY THE COPYRIGHT HOLDERS AND CONTRIBUTORS "AS IS" AND ANY EXPRESS OR I
  30:../Dave/Generated/AUTOMATION/automation.c ****  * INCLUDING, BUT NOT LIMITED TO, THE IMPLIED WARRANTIES OF MERCHANTABILITY AND FITNESS FOR A PARTI
  31:../Dave/Generated/AUTOMATION/automation.c ****  * DISCLAIMED. IN NO EVENT SHALL THE COPYRIGHT HOLDER OR CONTRIBUTORS BE LIABLE  FOR ANY DIRECT, IN
  32:../Dave/Generated/AUTOMATION/automation.c ****  * SPECIAL, EXEMPLARY, OR CONSEQUENTIAL DAMAGES (INCLUDING, BUT NOT LIMITED TO, PROCUREMENT OF SUBS
  33:../Dave/Generated/AUTOMATION/automation.c ****  * SERVICES; LOSS OF USE, DATA, OR PROFITS; OR BUSINESS INTERRUPTION) HOWEVER CAUSED AND ON ANY THE
  34:../Dave/Generated/AUTOMATION/automation.c ****  * WHETHER IN CONTRACT, STRICT LIABILITY,OR TORT (INCLUDING NEGLIGENCE OR OTHERWISE) ARISING IN ANY
  35:../Dave/Generated/AUTOMATION/automation.c ****  * USE OF THIS SOFTWARE, EVEN IF ADVISED OF THE POSSIBILITY OF SUCH DAMAGE.
  36:../Dave/Generated/AUTOMATION/automation.c ****  *
  37:../Dave/Generated/AUTOMATION/automation.c ****  * To improve the quality of the software, users are encouraged to share modifications, enhancement
  38:../Dave/Generated/AUTOMATION/automation.c ****  * with Infineon Technologies AG (dave@infineon.com).
  39:../Dave/Generated/AUTOMATION/automation.c ****  **************************************************************************************************
  40:../Dave/Generated/AUTOMATION/automation.c ****  *
  41:../Dave/Generated/AUTOMATION/automation.c ****  * Change History
  42:../Dave/Generated/AUTOMATION/automation.c ****  * --------------
  43:../Dave/Generated/AUTOMATION/automation.c ****  *
  44:../Dave/Generated/AUTOMATION/automation.c ****  * 2015-02-20:
  45:../Dave/Generated/AUTOMATION/automation.c ****  *     - Initial version
  46:../Dave/Generated/AUTOMATION/automation.c ****  *
  47:../Dave/Generated/AUTOMATION/automation.c ****  * 2015-06-20:
  48:../Dave/Generated/AUTOMATION/automation.c ****  *     - APIs added to set and get ramp parameters
  49:../Dave/Generated/AUTOMATION/automation.c ****  *     - Aligned with change in SYSTIMER APP
  50:../Dave/Generated/AUTOMATION/automation.c ****  *
  51:../Dave/Generated/AUTOMATION/automation.c ****  * @endcond
  52:../Dave/Generated/AUTOMATION/automation.c ****  *
  53:../Dave/Generated/AUTOMATION/automation.c ****  */
  54:../Dave/Generated/AUTOMATION/automation.c **** 
  55:../Dave/Generated/AUTOMATION/automation.c **** /**************************************************************************************************
  56:../Dave/Generated/AUTOMATION/automation.c ****  * HEADER FILES
  57:../Dave/Generated/AUTOMATION/automation.c ****  **************************************************************************************************
  58:../Dave/Generated/AUTOMATION/automation.c **** #include "automation.h"
  59:../Dave/Generated/AUTOMATION/automation.c **** 
  60:../Dave/Generated/AUTOMATION/automation.c **** 
  61:../Dave/Generated/AUTOMATION/automation.c **** /**************************************************************************************************
  62:../Dave/Generated/AUTOMATION/automation.c ****  * MACROS
  63:../Dave/Generated/AUTOMATION/automation.c ****  **************************************************************************************************
  64:../Dave/Generated/AUTOMATION/automation.c **** #define AUTOMATION_EH_RESET_BIT (0U) /**< reset the bit*/
  65:../Dave/Generated/AUTOMATION/automation.c **** #define AUTOMATION_EH_SET_BIT   (1U) /**< set the bit */
  66:../Dave/Generated/AUTOMATION/automation.c **** #define AUTOMATION_PARAM_SCALE  (32767)
  67:../Dave/Generated/AUTOMATION/automation.c **** #define AUTOMATION_FB_RAMP_MIN   (-65536)
  68:../Dave/Generated/AUTOMATION/automation.c **** #define AUTOMATION_FB_RAMP_MAX   (65535)
  69:../Dave/Generated/AUTOMATION/automation.c **** #define AUTOMATION_FB_RAMP_SLEWRATE_MIN  (0U)
  70:../Dave/Generated/AUTOMATION/automation.c **** #define AUTOMATION_FB_RAMP_SLEWRATE_MAX  (1000000U)
  71:../Dave/Generated/AUTOMATION/automation.c **** 
  72:../Dave/Generated/AUTOMATION/automation.c **** /**************************************************************************************************
  73:../Dave/Generated/AUTOMATION/automation.c ****  * LOCAL DATA
  74:../Dave/Generated/AUTOMATION/automation.c ****  **************************************************************************************************
  75:../Dave/Generated/AUTOMATION/automation.c **** 
  76:../Dave/Generated/AUTOMATION/automation.c **** /**************************************************************************************************
  77:../Dave/Generated/AUTOMATION/automation.c ****  * LOCAL ROUTINES
  78:../Dave/Generated/AUTOMATION/automation.c ****  **************************************************************************************************
  79:../Dave/Generated/AUTOMATION/automation.c **** #if (AUTOMATION_PH_ENABLE == 1U)
  80:../Dave/Generated/AUTOMATION/automation.c **** static void AUTOMATION_PH_ParamSet(uint8_t interface_count);
  81:../Dave/Generated/AUTOMATION/automation.c **** #endif
  82:../Dave/Generated/AUTOMATION/automation.c **** #if (AUTOMATION_EH_ENABLE == 1U)
  83:../Dave/Generated/AUTOMATION/automation.c **** static void AUTOMATION_AppInterface_ReadReportedErrors(void);
  84:../Dave/Generated/AUTOMATION/automation.c **** static void AUTOMATION_EH_ProcessError(AUTOMATION_EH_BIT_ERROR_TABLE_t* const error_table_entry_ptr
  85:../Dave/Generated/AUTOMATION/automation.c **** #endif
  86:../Dave/Generated/AUTOMATION/automation.c **** static void AUTOMATION_FB_AccelerationRamp(AUTOMATION_FB_RAMPGEN_t* const ramphandle_ptr);
  87:../Dave/Generated/AUTOMATION/automation.c **** 
  88:../Dave/Generated/AUTOMATION/automation.c **** /**************************************************************************************************
  89:../Dave/Generated/AUTOMATION/automation.c **** * API IMPLEMENTATION
  90:../Dave/Generated/AUTOMATION/automation.c **** ***************************************************************************************************
  91:../Dave/Generated/AUTOMATION/automation.c **** static inline uint32_t AUTOMATION_WriteBit(uint32_t word, uint8_t pos, uint8_t data)
  92:../Dave/Generated/AUTOMATION/automation.c **** {
  27              	 .loc 1 92 0
  28              	 .cfi_startproc
  29              	 
  30              	 
  31              	 
  32 0000 80B4     	 push {r7}
  33              	.LCFI0:
  34              	 .cfi_def_cfa_offset 4
  35              	 .cfi_offset 7,-4
  36 0002 85B0     	 sub sp,sp,#20
  37              	.LCFI1:
  38              	 .cfi_def_cfa_offset 24
  39 0004 00AF     	 add r7,sp,#0
  40              	.LCFI2:
  41              	 .cfi_def_cfa_register 7
  42 0006 7860     	 str r0,[r7,#4]
  43 0008 0B46     	 mov r3,r1
  44 000a FB70     	 strb r3,[r7,#3]
  45 000c 1346     	 mov r3,r2
  46 000e BB70     	 strb r3,[r7,#2]
  93:../Dave/Generated/AUTOMATION/automation.c ****   uint32_t return_val;
  94:../Dave/Generated/AUTOMATION/automation.c ****   if (data == 0U)
  47              	 .loc 1 94 0
  48 0010 BB78     	 ldrb r3,[r7,#2]
  49 0012 002B     	 cmp r3,#0
  50 0014 08D1     	 bne .L2
  95:../Dave/Generated/AUTOMATION/automation.c ****   {
  96:../Dave/Generated/AUTOMATION/automation.c ****     /* Reset the bit */
  97:../Dave/Generated/AUTOMATION/automation.c ****     return_val = (word & (~((uint32_t) 1U << (uint32_t) pos)));
  51              	 .loc 1 97 0
  52 0016 FB78     	 ldrb r3,[r7,#3]
  53 0018 0122     	 movs r2,#1
  54 001a 02FA03F3 	 lsl r3,r2,r3
  55 001e DA43     	 mvns r2,r3
  56 0020 7B68     	 ldr r3,[r7,#4]
  57 0022 1340     	 ands r3,r3,r2
  58 0024 FB60     	 str r3,[r7,#12]
  59 0026 05E0     	 b .L3
  60              	.L2:
  98:../Dave/Generated/AUTOMATION/automation.c ****   }
  99:../Dave/Generated/AUTOMATION/automation.c ****   else
 100:../Dave/Generated/AUTOMATION/automation.c ****   {
 101:../Dave/Generated/AUTOMATION/automation.c ****     /* Set the bit */
 102:../Dave/Generated/AUTOMATION/automation.c ****     return_val = (word | ((uint32_t) 1U << (uint32_t) pos));
  61              	 .loc 1 102 0
  62 0028 FB78     	 ldrb r3,[r7,#3]
  63 002a 0122     	 movs r2,#1
  64 002c 9A40     	 lsls r2,r2,r3
  65 002e 7B68     	 ldr r3,[r7,#4]
  66 0030 1343     	 orrs r3,r3,r2
  67 0032 FB60     	 str r3,[r7,#12]
  68              	.L3:
 103:../Dave/Generated/AUTOMATION/automation.c ****   }
 104:../Dave/Generated/AUTOMATION/automation.c ****   return return_val;
  69              	 .loc 1 104 0
  70 0034 FB68     	 ldr r3,[r7,#12]
 105:../Dave/Generated/AUTOMATION/automation.c **** }
  71              	 .loc 1 105 0
  72 0036 1846     	 mov r0,r3
  73 0038 1437     	 adds r7,r7,#20
  74              	.LCFI3:
  75              	 .cfi_def_cfa_offset 4
  76 003a BD46     	 mov sp,r7
  77              	.LCFI4:
  78              	 .cfi_def_cfa_register 13
  79              	 
  80 003c 5DF8047B 	 ldr r7,[sp],#4
  81              	.LCFI5:
  82              	 .cfi_restore 7
  83              	 .cfi_def_cfa_offset 0
  84 0040 7047     	 bx lr
  85              	 .cfi_endproc
  86              	.LFE135:
  88 0042 00BF     	 .section .bss.AUTOMATION_EH_BitInterface_Word,"aw",%nobits
  89              	 .align 2
  92              	AUTOMATION_EH_BitInterface_Word:
  93 0000 00000000 	 .space 8
  93      00000000 
  94              	 .section .bss.AUTOMATION_EH_ReportingInterface,"aw",%nobits
  95              	 .align 2
  98              	AUTOMATION_EH_ReportingInterface:
  99 0000 00000000 	 .space 8
  99      00000000 
 100              	 .section .text.AUTOMATION_GetAppVersion,"ax",%progbits
 101              	 .align 2
 102              	 .global AUTOMATION_GetAppVersion
 103              	 .thumb
 104              	 .thumb_func
 106              	AUTOMATION_GetAppVersion:
 107              	.LFB136:
 106:../Dave/Generated/AUTOMATION/automation.c **** 
 107:../Dave/Generated/AUTOMATION/automation.c **** #if (AUTOMATION_EH_ENABLE == 1U)
 108:../Dave/Generated/AUTOMATION/automation.c **** static AUTOMATION_EH_BIT_INTERFACE_t AUTOMATION_EH_BitInterface_Word[AUTOMATION_NUM_INTERFACES];
 109:../Dave/Generated/AUTOMATION/automation.c **** static AUTOMATION_EH_ERROR_REPORT_t AUTOMATION_EH_ReportingInterface;
 110:../Dave/Generated/AUTOMATION/automation.c **** #endif
 111:../Dave/Generated/AUTOMATION/automation.c **** 
 112:../Dave/Generated/AUTOMATION/automation.c **** 
 113:../Dave/Generated/AUTOMATION/automation.c **** 
 114:../Dave/Generated/AUTOMATION/automation.c **** /* Returns the version of the GLOBAL_POSIF App. */
 115:../Dave/Generated/AUTOMATION/automation.c **** DAVE_APP_VERSION_t AUTOMATION_GetAppVersion(void)
 116:../Dave/Generated/AUTOMATION/automation.c **** {
 108              	 .loc 1 116 0
 109              	 .cfi_startproc
 110              	 
 111              	 
 112              	 
 113 0000 80B4     	 push {r7}
 114              	.LCFI6:
 115              	 .cfi_def_cfa_offset 4
 116              	 .cfi_offset 7,-4
 117 0002 83B0     	 sub sp,sp,#12
 118              	.LCFI7:
 119              	 .cfi_def_cfa_offset 16
 120 0004 00AF     	 add r7,sp,#0
 121              	.LCFI8:
 122              	 .cfi_def_cfa_register 7
 117:../Dave/Generated/AUTOMATION/automation.c ****   DAVE_APP_VERSION_t version;
 118:../Dave/Generated/AUTOMATION/automation.c **** 
 119:../Dave/Generated/AUTOMATION/automation.c ****   version.major = AUTOMATION_MAJOR_VERSION;
 123              	 .loc 1 119 0
 124 0006 0423     	 movs r3,#4
 125 0008 3B70     	 strb r3,[r7]
 120:../Dave/Generated/AUTOMATION/automation.c ****   version.minor = AUTOMATION_MINOR_VERSION;
 126              	 .loc 1 120 0
 127 000a 0023     	 movs r3,#0
 128 000c 7B70     	 strb r3,[r7,#1]
 121:../Dave/Generated/AUTOMATION/automation.c ****   version.patch = AUTOMATION_PATCH_VERSION;
 129              	 .loc 1 121 0
 130 000e 0A23     	 movs r3,#10
 131 0010 BB70     	 strb r3,[r7,#2]
 122:../Dave/Generated/AUTOMATION/automation.c **** 
 123:../Dave/Generated/AUTOMATION/automation.c ****   return version;
 132              	 .loc 1 123 0
 133 0012 3B1D     	 adds r3,r7,#4
 134 0014 3A46     	 mov r2,r7
 135 0016 1268     	 ldr r2,[r2]
 136 0018 1146     	 mov r1,r2
 137 001a 1980     	 strh r1,[r3]
 138 001c 0233     	 adds r3,r3,#2
 139 001e 120C     	 lsrs r2,r2,#16
 140 0020 1A70     	 strb r2,[r3]
 141 0022 0023     	 movs r3,#0
 142 0024 3A79     	 ldrb r2,[r7,#4]
 143 0026 62F30703 	 bfi r3,r2,#0,#8
 144 002a 7A79     	 ldrb r2,[r7,#5]
 145 002c 62F30F23 	 bfi r3,r2,#8,#8
 146 0030 BA79     	 ldrb r2,[r7,#6]
 147 0032 62F31743 	 bfi r3,r2,#16,#8
 124:../Dave/Generated/AUTOMATION/automation.c **** }
 148              	 .loc 1 124 0
 149 0036 1846     	 mov r0,r3
 150 0038 0C37     	 adds r7,r7,#12
 151              	.LCFI9:
 152              	 .cfi_def_cfa_offset 4
 153 003a BD46     	 mov sp,r7
 154              	.LCFI10:
 155              	 .cfi_def_cfa_register 13
 156              	 
 157 003c 5DF8047B 	 ldr r7,[sp],#4
 158              	.LCFI11:
 159              	 .cfi_restore 7
 160              	 .cfi_def_cfa_offset 0
 161 0040 7047     	 bx lr
 162              	 .cfi_endproc
 163              	.LFE136:
 165 0042 00BF     	 .section .text.AUTOMATION_Init,"ax",%progbits
 166              	 .align 2
 167              	 .global AUTOMATION_Init
 168              	 .thumb
 169              	 .thumb_func
 171              	AUTOMATION_Init:
 172              	.LFB137:
 125:../Dave/Generated/AUTOMATION/automation.c **** 
 126:../Dave/Generated/AUTOMATION/automation.c **** /**
 127:../Dave/Generated/AUTOMATION/automation.c ****  * This creates the error handler task and function block processor task
 128:../Dave/Generated/AUTOMATION/automation.c ****  * Initializes parameter handler
 129:../Dave/Generated/AUTOMATION/automation.c ****  */
 130:../Dave/Generated/AUTOMATION/automation.c **** AUTOMATION_STATUS_t AUTOMATION_Init(AUTOMATION_t* const handle_ptr)
 131:../Dave/Generated/AUTOMATION/automation.c **** {
 173              	 .loc 1 131 0
 174              	 .cfi_startproc
 175              	 
 176              	 
 177 0000 80B5     	 push {r7,lr}
 178              	.LCFI12:
 179              	 .cfi_def_cfa_offset 8
 180              	 .cfi_offset 7,-8
 181              	 .cfi_offset 14,-4
 182 0002 84B0     	 sub sp,sp,#16
 183              	.LCFI13:
 184              	 .cfi_def_cfa_offset 24
 185 0004 00AF     	 add r7,sp,#0
 186              	.LCFI14:
 187              	 .cfi_def_cfa_register 7
 188 0006 7860     	 str r0,[r7,#4]
 132:../Dave/Generated/AUTOMATION/automation.c ****   uint32_t status = 0U;
 189              	 .loc 1 132 0
 190 0008 0023     	 movs r3,#0
 191 000a FB60     	 str r3,[r7,#12]
 133:../Dave/Generated/AUTOMATION/automation.c ****   if (AUTOMATION_STATE_UNINITIALIZED == handle_ptr->state)
 192              	 .loc 1 133 0
 193 000c 7B68     	 ldr r3,[r7,#4]
 194 000e 1B7B     	 ldrb r3,[r3,#12]
 195 0010 002B     	 cmp r3,#0
 196 0012 2DD1     	 bne .L8
 134:../Dave/Generated/AUTOMATION/automation.c ****   {
 135:../Dave/Generated/AUTOMATION/automation.c ****     status = (uint32_t) SYSTIMER_Init(handle_ptr->systimer_ptr);
 197              	 .loc 1 135 0
 198 0014 7B68     	 ldr r3,[r7,#4]
 199 0016 1B68     	 ldr r3,[r3]
 200 0018 1846     	 mov r0,r3
 201 001a FFF7FEFF 	 bl SYSTIMER_Init
 202 001e 0346     	 mov r3,r0
 203 0020 FB60     	 str r3,[r7,#12]
 136:../Dave/Generated/AUTOMATION/automation.c **** 
 137:../Dave/Generated/AUTOMATION/automation.c **** #if (AUTOMATION_EH_ENABLE == 1U)
 138:../Dave/Generated/AUTOMATION/automation.c ****     handle_ptr->eh_timer_id = SYSTIMER_CreateTimer(AUTOMATION_EH_PERIOD,
 204              	 .loc 1 138 0
 205 0022 4FF4FA60 	 mov r0,#2000
 206 0026 0121     	 movs r1,#1
 207 0028 144A     	 ldr r2,.L10
 208 002a 0023     	 movs r3,#0
 209 002c FFF7FEFF 	 bl SYSTIMER_CreateTimer
 210 0030 0246     	 mov r2,r0
 211 0032 7B68     	 ldr r3,[r7,#4]
 212 0034 9A60     	 str r2,[r3,#8]
 139:../Dave/Generated/AUTOMATION/automation.c ****     	SYSTIMER_MODE_PERIODIC,
 140:../Dave/Generated/AUTOMATION/automation.c ****         (SYSTIMER_CALLBACK_t)AUTOMATION_EH_ErrorSequencer,
 141:../Dave/Generated/AUTOMATION/automation.c ****         NULL);
 142:../Dave/Generated/AUTOMATION/automation.c ****     status |= (uint32_t)SYSTIMER_StartTimer(handle_ptr->eh_timer_id);
 213              	 .loc 1 142 0
 214 0036 7B68     	 ldr r3,[r7,#4]
 215 0038 9B68     	 ldr r3,[r3,#8]
 216 003a 1846     	 mov r0,r3
 217 003c FFF7FEFF 	 bl SYSTIMER_StartTimer
 218 0040 0346     	 mov r3,r0
 219 0042 1A46     	 mov r2,r3
 220 0044 FB68     	 ldr r3,[r7,#12]
 221 0046 1343     	 orrs r3,r3,r2
 222 0048 FB60     	 str r3,[r7,#12]
 143:../Dave/Generated/AUTOMATION/automation.c **** #endif
 144:../Dave/Generated/AUTOMATION/automation.c **** 
 145:../Dave/Generated/AUTOMATION/automation.c **** #if (AUTOMATION_FB_TASK_ENABLE == 1U)
 146:../Dave/Generated/AUTOMATION/automation.c ****     handle_ptr->fb_timer_id = SYSTIMER_CreateTimer(AUTOMATION_FB_PERIOD,
 147:../Dave/Generated/AUTOMATION/automation.c ****         SYSTIMER_MODE_PERIODIC,
 148:../Dave/Generated/AUTOMATION/automation.c ****         (SYSTIMER_CALLBACK_t)AUTOMATION_FB_FunctionBlockSequencer,
 149:../Dave/Generated/AUTOMATION/automation.c ****         NULL);
 150:../Dave/Generated/AUTOMATION/automation.c ****     status |= (uint32_t)SYSTIMER_StartTimer(handle_ptr->fb_timer_id);
 151:../Dave/Generated/AUTOMATION/automation.c **** #endif
 152:../Dave/Generated/AUTOMATION/automation.c **** 
 153:../Dave/Generated/AUTOMATION/automation.c **** #if (AUTOMATION_FB_RAMP_GEN_0_ENABLED == 1U)
 154:../Dave/Generated/AUTOMATION/automation.c ****     status |= (uint32_t)AUTOMATION_FB_RegisterFunctionBlock(&AUTOMATION_FB_RAMP_0);
 223              	 .loc 1 154 0
 224 004a 0D48     	 ldr r0,.L10+4
 225 004c FFF7FEFF 	 bl AUTOMATION_FB_RegisterFunctionBlock
 226 0050 0346     	 mov r3,r0
 227 0052 1A46     	 mov r2,r3
 228 0054 FB68     	 ldr r3,[r7,#12]
 229 0056 1343     	 orrs r3,r3,r2
 230 0058 FB60     	 str r3,[r7,#12]
 155:../Dave/Generated/AUTOMATION/automation.c **** #endif
 156:../Dave/Generated/AUTOMATION/automation.c **** #if (AUTOMATION_FB_RAMP_GEN_1_ENABLED == 1U)
 157:../Dave/Generated/AUTOMATION/automation.c ****     status |= (uint32_t)AUTOMATION_FB_RegisterFunctionBlock(&AUTOMATION_FB_RAMP_1);
 231              	 .loc 1 157 0
 232 005a 0A48     	 ldr r0,.L10+8
 233 005c FFF7FEFF 	 bl AUTOMATION_FB_RegisterFunctionBlock
 234 0060 0346     	 mov r3,r0
 235 0062 1A46     	 mov r2,r3
 236 0064 FB68     	 ldr r3,[r7,#12]
 237 0066 1343     	 orrs r3,r3,r2
 238 0068 FB60     	 str r3,[r7,#12]
 158:../Dave/Generated/AUTOMATION/automation.c **** #endif
 159:../Dave/Generated/AUTOMATION/automation.c **** 
 160:../Dave/Generated/AUTOMATION/automation.c ****     handle_ptr->state = AUTOMATION_STATE_INITIALIZED;
 239              	 .loc 1 160 0
 240 006a 7B68     	 ldr r3,[r7,#4]
 241 006c 0122     	 movs r2,#1
 242 006e 1A73     	 strb r2,[r3,#12]
 243              	.L8:
 161:../Dave/Generated/AUTOMATION/automation.c ****   }
 162:../Dave/Generated/AUTOMATION/automation.c ****   return ((AUTOMATION_STATUS_t) status);
 244              	 .loc 1 162 0
 245 0070 FB68     	 ldr r3,[r7,#12]
 246 0072 DBB2     	 uxtb r3,r3
 163:../Dave/Generated/AUTOMATION/automation.c **** }
 247              	 .loc 1 163 0
 248 0074 1846     	 mov r0,r3
 249 0076 1037     	 adds r7,r7,#16
 250              	.LCFI15:
 251              	 .cfi_def_cfa_offset 8
 252 0078 BD46     	 mov sp,r7
 253              	.LCFI16:
 254              	 .cfi_def_cfa_register 13
 255              	 
 256 007a 80BD     	 pop {r7,pc}
 257              	.L11:
 258              	 .align 2
 259              	.L10:
 260 007c 00000000 	 .word AUTOMATION_EH_ErrorSequencer
 261 0080 00000000 	 .word AUTOMATION_FB_RAMP_0
 262 0084 00000000 	 .word AUTOMATION_FB_RAMP_1
 263              	 .cfi_endproc
 264              	.LFE137:
 266              	 .section .text.AUTOMATION_RegisterApp,"ax",%progbits
 267              	 .align 2
 268              	 .global AUTOMATION_RegisterApp
 269              	 .thumb
 270              	 .thumb_func
 272              	AUTOMATION_RegisterApp:
 273              	.LFB138:
 164:../Dave/Generated/AUTOMATION/automation.c **** 
 165:../Dave/Generated/AUTOMATION/automation.c **** /**
 166:../Dave/Generated/AUTOMATION/automation.c ****  * This function assigns the app_id to the app instance.
 167:../Dave/Generated/AUTOMATION/automation.c ****  */
 168:../Dave/Generated/AUTOMATION/automation.c **** AUTOMATION_STATUS_t AUTOMATION_RegisterApp(void* const app_handle_ptr, const char* const name, uint
 169:../Dave/Generated/AUTOMATION/automation.c **** {
 274              	 .loc 1 169 0
 275              	 .cfi_startproc
 276              	 
 277              	 
 278              	 
 279 0000 80B4     	 push {r7}
 280              	.LCFI17:
 281              	 .cfi_def_cfa_offset 4
 282              	 .cfi_offset 7,-4
 283 0002 87B0     	 sub sp,sp,#28
 284              	.LCFI18:
 285              	 .cfi_def_cfa_offset 32
 286 0004 00AF     	 add r7,sp,#0
 287              	.LCFI19:
 288              	 .cfi_def_cfa_register 7
 289 0006 F860     	 str r0,[r7,#12]
 290 0008 B960     	 str r1,[r7,#8]
 291 000a 7A60     	 str r2,[r7,#4]
 170:../Dave/Generated/AUTOMATION/automation.c ****   AUTOMATION_STATUS_t status;
 171:../Dave/Generated/AUTOMATION/automation.c **** 
 172:../Dave/Generated/AUTOMATION/automation.c ****   if (AUTOMATION_NUM_APPS > AUTOMATION_Handle.app_id)
 292              	 .loc 1 172 0
 293 000c 134B     	 ldr r3,.L16
 294 000e 5B7B     	 ldrb r3,[r3,#13]
 295 0010 002B     	 cmp r3,#0
 296 0012 1AD1     	 bne .L13
 173:../Dave/Generated/AUTOMATION/automation.c ****   {
 174:../Dave/Generated/AUTOMATION/automation.c ****     /* Register and Assign App ID */
 175:../Dave/Generated/AUTOMATION/automation.c ****     AUTOMATION_App_Table[AUTOMATION_Handle.app_id].apphandle_ptr = (void*) app_handle_ptr;
 297              	 .loc 1 175 0
 298 0014 114B     	 ldr r3,.L16
 299 0016 5B7B     	 ldrb r3,[r3,#13]
 300 0018 1946     	 mov r1,r3
 301 001a 114A     	 ldr r2,.L16+4
 302 001c FB68     	 ldr r3,[r7,#12]
 303 001e 42F83130 	 str r3,[r2,r1,lsl#3]
 176:../Dave/Generated/AUTOMATION/automation.c ****     AUTOMATION_App_Table[AUTOMATION_Handle.app_id].app_name_ptr = name;
 304              	 .loc 1 176 0
 305 0022 0E4B     	 ldr r3,.L16
 306 0024 5B7B     	 ldrb r3,[r3,#13]
 307 0026 0E4A     	 ldr r2,.L16+4
 308 0028 DB00     	 lsls r3,r3,#3
 309 002a 1344     	 add r3,r3,r2
 310 002c BA68     	 ldr r2,[r7,#8]
 311 002e 5A60     	 str r2,[r3,#4]
 177:../Dave/Generated/AUTOMATION/automation.c ****     *app_id = AUTOMATION_Handle.app_id;
 312              	 .loc 1 177 0
 313 0030 0A4B     	 ldr r3,.L16
 314 0032 5A7B     	 ldrb r2,[r3,#13]
 315 0034 7B68     	 ldr r3,[r7,#4]
 316 0036 1A70     	 strb r2,[r3]
 178:../Dave/Generated/AUTOMATION/automation.c ****     AUTOMATION_Handle.app_id++;
 317              	 .loc 1 178 0
 318 0038 084B     	 ldr r3,.L16
 319 003a 5B7B     	 ldrb r3,[r3,#13]
 320 003c 0133     	 adds r3,r3,#1
 321 003e DAB2     	 uxtb r2,r3
 322 0040 064B     	 ldr r3,.L16
 323 0042 5A73     	 strb r2,[r3,#13]
 179:../Dave/Generated/AUTOMATION/automation.c ****     status = AUTOMATION_STATUS_SUCCESS;
 324              	 .loc 1 179 0
 325 0044 0023     	 movs r3,#0
 326 0046 FB75     	 strb r3,[r7,#23]
 327 0048 01E0     	 b .L14
 328              	.L13:
 180:../Dave/Generated/AUTOMATION/automation.c ****   }
 181:../Dave/Generated/AUTOMATION/automation.c ****   else
 182:../Dave/Generated/AUTOMATION/automation.c ****   {
 183:../Dave/Generated/AUTOMATION/automation.c ****     /* App table entries are reached to its Max. */
 184:../Dave/Generated/AUTOMATION/automation.c ****     status = AUTOMATION_STATUS_NUM_APPS_EXCEEDED;
 329              	 .loc 1 184 0
 330 004a 0423     	 movs r3,#4
 331 004c FB75     	 strb r3,[r7,#23]
 332              	.L14:
 185:../Dave/Generated/AUTOMATION/automation.c ****   }
 186:../Dave/Generated/AUTOMATION/automation.c ****   return status;
 333              	 .loc 1 186 0
 334 004e FB7D     	 ldrb r3,[r7,#23]
 187:../Dave/Generated/AUTOMATION/automation.c **** }
 335              	 .loc 1 187 0
 336 0050 1846     	 mov r0,r3
 337 0052 1C37     	 adds r7,r7,#28
 338              	.LCFI20:
 339              	 .cfi_def_cfa_offset 4
 340 0054 BD46     	 mov sp,r7
 341              	.LCFI21:
 342              	 .cfi_def_cfa_register 13
 343              	 
 344 0056 5DF8047B 	 ldr r7,[sp],#4
 345              	.LCFI22:
 346              	 .cfi_restore 7
 347              	 .cfi_def_cfa_offset 0
 348 005a 7047     	 bx lr
 349              	.L17:
 350              	 .align 2
 351              	.L16:
 352 005c 00000000 	 .word AUTOMATION_0
 353 0060 00000000 	 .word AUTOMATION_App_Table
 354              	 .cfi_endproc
 355              	.LFE138:
 357              	 .section .text.AUTOMATION_RegisterInterface,"ax",%progbits
 358              	 .align 2
 359              	 .global AUTOMATION_RegisterInterface
 360              	 .thumb
 361              	 .thumb_func
 363              	AUTOMATION_RegisterInterface:
 364              	.LFB139:
 188:../Dave/Generated/AUTOMATION/automation.c **** 
 189:../Dave/Generated/AUTOMATION/automation.c **** /**
 190:../Dave/Generated/AUTOMATION/automation.c ****  * This function assigns the interface ID to the interface channel.
 191:../Dave/Generated/AUTOMATION/automation.c ****  */
 192:../Dave/Generated/AUTOMATION/automation.c **** AUTOMATION_STATUS_t AUTOMATION_RegisterInterface(uint8_t* interface_id)
 193:../Dave/Generated/AUTOMATION/automation.c **** {
 365              	 .loc 1 193 0
 366              	 .cfi_startproc
 367              	 
 368              	 
 369              	 
 370 0000 80B4     	 push {r7}
 371              	.LCFI23:
 372              	 .cfi_def_cfa_offset 4
 373              	 .cfi_offset 7,-4
 374 0002 85B0     	 sub sp,sp,#20
 375              	.LCFI24:
 376              	 .cfi_def_cfa_offset 24
 377 0004 00AF     	 add r7,sp,#0
 378              	.LCFI25:
 379              	 .cfi_def_cfa_register 7
 380 0006 7860     	 str r0,[r7,#4]
 194:../Dave/Generated/AUTOMATION/automation.c ****   AUTOMATION_STATUS_t status;
 195:../Dave/Generated/AUTOMATION/automation.c ****   if (AUTOMATION_NUM_INTERFACES > AUTOMATION_Handle.interface_id)
 381              	 .loc 1 195 0
 382 0008 0C4B     	 ldr r3,.L22
 383 000a 9B7B     	 ldrb r3,[r3,#14]
 384 000c 002B     	 cmp r3,#0
 385 000e 0CD1     	 bne .L19
 196:../Dave/Generated/AUTOMATION/automation.c ****   {
 197:../Dave/Generated/AUTOMATION/automation.c ****     /* Register Interface ID */
 198:../Dave/Generated/AUTOMATION/automation.c ****     *interface_id = (uint8_t) AUTOMATION_Handle.interface_id;
 386              	 .loc 1 198 0
 387 0010 0A4B     	 ldr r3,.L22
 388 0012 9A7B     	 ldrb r2,[r3,#14]
 389 0014 7B68     	 ldr r3,[r7,#4]
 390 0016 1A70     	 strb r2,[r3]
 199:../Dave/Generated/AUTOMATION/automation.c ****     AUTOMATION_Handle.interface_id++;
 391              	 .loc 1 199 0
 392 0018 084B     	 ldr r3,.L22
 393 001a 9B7B     	 ldrb r3,[r3,#14]
 394 001c 0133     	 adds r3,r3,#1
 395 001e DAB2     	 uxtb r2,r3
 396 0020 064B     	 ldr r3,.L22
 397 0022 9A73     	 strb r2,[r3,#14]
 200:../Dave/Generated/AUTOMATION/automation.c ****     status = AUTOMATION_STATUS_SUCCESS;
 398              	 .loc 1 200 0
 399 0024 0023     	 movs r3,#0
 400 0026 FB73     	 strb r3,[r7,#15]
 401 0028 01E0     	 b .L20
 402              	.L19:
 201:../Dave/Generated/AUTOMATION/automation.c ****   }
 202:../Dave/Generated/AUTOMATION/automation.c ****   else
 203:../Dave/Generated/AUTOMATION/automation.c ****   {
 204:../Dave/Generated/AUTOMATION/automation.c ****     /* Interface table entries are reached to its Max. */
 205:../Dave/Generated/AUTOMATION/automation.c ****     status = AUTOMATION_STATUS_NUM_INTERFACE_EXCEEDED;
 403              	 .loc 1 205 0
 404 002a 0523     	 movs r3,#5
 405 002c FB73     	 strb r3,[r7,#15]
 406              	.L20:
 206:../Dave/Generated/AUTOMATION/automation.c ****   }
 207:../Dave/Generated/AUTOMATION/automation.c **** 
 208:../Dave/Generated/AUTOMATION/automation.c ****   return status;
 407              	 .loc 1 208 0
 408 002e FB7B     	 ldrb r3,[r7,#15]
 209:../Dave/Generated/AUTOMATION/automation.c **** }
 409              	 .loc 1 209 0
 410 0030 1846     	 mov r0,r3
 411 0032 1437     	 adds r7,r7,#20
 412              	.LCFI26:
 413              	 .cfi_def_cfa_offset 4
 414 0034 BD46     	 mov sp,r7
 415              	.LCFI27:
 416              	 .cfi_def_cfa_register 13
 417              	 
 418 0036 5DF8047B 	 ldr r7,[sp],#4
 419              	.LCFI28:
 420              	 .cfi_restore 7
 421              	 .cfi_def_cfa_offset 0
 422 003a 7047     	 bx lr
 423              	.L23:
 424              	 .align 2
 425              	.L22:
 426 003c 00000000 	 .word AUTOMATION_0
 427              	 .cfi_endproc
 428              	.LFE139:
 430              	 .section .text.AUTOMATION_RegisterTask,"ax",%progbits
 431              	 .align 2
 432              	 .global AUTOMATION_RegisterTask
 433              	 .thumb
 434              	 .thumb_func
 436              	AUTOMATION_RegisterTask:
 437              	.LFB140:
 210:../Dave/Generated/AUTOMATION/automation.c **** 
 211:../Dave/Generated/AUTOMATION/automation.c **** /**
 212:../Dave/Generated/AUTOMATION/automation.c ****  * Registers the task function to be called from the system timer interrupt
 213:../Dave/Generated/AUTOMATION/automation.c ****  */
 214:../Dave/Generated/AUTOMATION/automation.c **** AUTOMATION_STATUS_t AUTOMATION_RegisterTask(AUTOMATION_TASK_FUNCT_PTR_t task_ptr, void* callback_ar
 215:../Dave/Generated/AUTOMATION/automation.c ****                                             uint32_t delay_count)
 216:../Dave/Generated/AUTOMATION/automation.c **** {
 438              	 .loc 1 216 0
 439              	 .cfi_startproc
 440              	 
 441              	 
 442 0000 90B5     	 push {r4,r7,lr}
 443              	.LCFI29:
 444              	 .cfi_def_cfa_offset 12
 445              	 .cfi_offset 4,-12
 446              	 .cfi_offset 7,-8
 447              	 .cfi_offset 14,-4
 448 0002 87B0     	 sub sp,sp,#28
 449              	.LCFI30:
 450              	 .cfi_def_cfa_offset 40
 451 0004 00AF     	 add r7,sp,#0
 452              	.LCFI31:
 453              	 .cfi_def_cfa_register 7
 454 0006 F860     	 str r0,[r7,#12]
 455 0008 B960     	 str r1,[r7,#8]
 456 000a 7A60     	 str r2,[r7,#4]
 217:../Dave/Generated/AUTOMATION/automation.c ****   AUTOMATION_STATUS_t status;
 218:../Dave/Generated/AUTOMATION/automation.c ****   if (AUTOMATION_NUM_TASKS > AUTOMATION_Handle.task_id)
 457              	 .loc 1 218 0
 458 000c 2C4B     	 ldr r3,.L30
 459 000e 1B7C     	 ldrb r3,[r3,#16]
 460 0010 052B     	 cmp r3,#5
 461 0012 4ED8     	 bhi .L25
 219:../Dave/Generated/AUTOMATION/automation.c ****   {
 220:../Dave/Generated/AUTOMATION/automation.c ****     /* Update the task table information */
 221:../Dave/Generated/AUTOMATION/automation.c ****     AUTOMATION_Task_Table[AUTOMATION_Handle.task_id].task_ptr = task_ptr;
 462              	 .loc 1 221 0
 463 0014 2A4B     	 ldr r3,.L30
 464 0016 1B7C     	 ldrb r3,[r3,#16]
 465 0018 1946     	 mov r1,r3
 466 001a 2A4A     	 ldr r2,.L30+4
 467 001c 0B46     	 mov r3,r1
 468 001e 5B00     	 lsls r3,r3,#1
 469 0020 0B44     	 add r3,r3,r1
 470 0022 9B00     	 lsls r3,r3,#2
 471 0024 1344     	 add r3,r3,r2
 472 0026 FA68     	 ldr r2,[r7,#12]
 473 0028 1A60     	 str r2,[r3]
 222:../Dave/Generated/AUTOMATION/automation.c ****     AUTOMATION_Task_Table[AUTOMATION_Handle.task_id].period = delay_count;
 474              	 .loc 1 222 0
 475 002a 254B     	 ldr r3,.L30
 476 002c 1B7C     	 ldrb r3,[r3,#16]
 477 002e 1946     	 mov r1,r3
 478 0030 244A     	 ldr r2,.L30+4
 479 0032 0B46     	 mov r3,r1
 480 0034 5B00     	 lsls r3,r3,#1
 481 0036 0B44     	 add r3,r3,r1
 482 0038 9B00     	 lsls r3,r3,#2
 483 003a 1344     	 add r3,r3,r2
 484 003c 7A68     	 ldr r2,[r7,#4]
 485 003e 5A60     	 str r2,[r3,#4]
 223:../Dave/Generated/AUTOMATION/automation.c **** 
 224:../Dave/Generated/AUTOMATION/automation.c ****     /* Create the system timer with the given period */
 225:../Dave/Generated/AUTOMATION/automation.c ****     AUTOMATION_Task_Table[AUTOMATION_Handle.task_id].task_timer_id = SYSTIMER_CreateTimer(delay_cou
 486              	 .loc 1 225 0
 487 0040 1F4B     	 ldr r3,.L30
 488 0042 1B7C     	 ldrb r3,[r3,#16]
 489 0044 1C46     	 mov r4,r3
 490 0046 7868     	 ldr r0,[r7,#4]
 491 0048 0121     	 movs r1,#1
 492 004a FA68     	 ldr r2,[r7,#12]
 493 004c BB68     	 ldr r3,[r7,#8]
 494 004e FFF7FEFF 	 bl SYSTIMER_CreateTimer
 495 0052 0146     	 mov r1,r0
 496 0054 1B4A     	 ldr r2,.L30+4
 497 0056 2346     	 mov r3,r4
 498 0058 5B00     	 lsls r3,r3,#1
 499 005a 2344     	 add r3,r3,r4
 500 005c 9B00     	 lsls r3,r3,#2
 501 005e 1344     	 add r3,r3,r2
 502 0060 0833     	 adds r3,r3,#8
 503 0062 1960     	 str r1,[r3]
 226:../Dave/Generated/AUTOMATION/automation.c ****         SYSTIMER_MODE_PERIODIC, (SYSTIMER_CALLBACK_t) task_ptr, callback_arg_ptr);
 227:../Dave/Generated/AUTOMATION/automation.c ****     /* check if system timer is created successfully */
 228:../Dave/Generated/AUTOMATION/automation.c ****     if (AUTOMATION_Task_Table[AUTOMATION_Handle.task_id].task_timer_id != (0U))
 504              	 .loc 1 228 0
 505 0064 164B     	 ldr r3,.L30
 506 0066 1B7C     	 ldrb r3,[r3,#16]
 507 0068 1946     	 mov r1,r3
 508 006a 164A     	 ldr r2,.L30+4
 509 006c 0B46     	 mov r3,r1
 510 006e 5B00     	 lsls r3,r3,#1
 511 0070 0B44     	 add r3,r3,r1
 512 0072 9B00     	 lsls r3,r3,#2
 513 0074 1344     	 add r3,r3,r2
 514 0076 0833     	 adds r3,r3,#8
 515 0078 1B68     	 ldr r3,[r3]
 516 007a 002B     	 cmp r3,#0
 517 007c 16D0     	 beq .L26
 229:../Dave/Generated/AUTOMATION/automation.c ****     {
 230:../Dave/Generated/AUTOMATION/automation.c ****       /* start the task timer */
 231:../Dave/Generated/AUTOMATION/automation.c ****       status = (AUTOMATION_STATUS_t) SYSTIMER_StartTimer(
 232:../Dave/Generated/AUTOMATION/automation.c ****           AUTOMATION_Task_Table[AUTOMATION_Handle.task_id].task_timer_id);
 518              	 .loc 1 232 0
 519 007e 104B     	 ldr r3,.L30
 520 0080 1B7C     	 ldrb r3,[r3,#16]
 231:../Dave/Generated/AUTOMATION/automation.c ****           AUTOMATION_Task_Table[AUTOMATION_Handle.task_id].task_timer_id);
 521              	 .loc 1 231 0
 522 0082 1946     	 mov r1,r3
 523 0084 0F4A     	 ldr r2,.L30+4
 524 0086 0B46     	 mov r3,r1
 525 0088 5B00     	 lsls r3,r3,#1
 526 008a 0B44     	 add r3,r3,r1
 527 008c 9B00     	 lsls r3,r3,#2
 528 008e 1344     	 add r3,r3,r2
 529 0090 0833     	 adds r3,r3,#8
 530 0092 1B68     	 ldr r3,[r3]
 531 0094 1846     	 mov r0,r3
 532 0096 FFF7FEFF 	 bl SYSTIMER_StartTimer
 533 009a 0346     	 mov r3,r0
 534 009c FB75     	 strb r3,[r7,#23]
 233:../Dave/Generated/AUTOMATION/automation.c ****       AUTOMATION_Handle.task_id++;
 535              	 .loc 1 233 0
 536 009e 084B     	 ldr r3,.L30
 537 00a0 1B7C     	 ldrb r3,[r3,#16]
 538 00a2 0133     	 adds r3,r3,#1
 539 00a4 DAB2     	 uxtb r2,r3
 540 00a6 064B     	 ldr r3,.L30
 541 00a8 1A74     	 strb r2,[r3,#16]
 542 00aa 04E0     	 b .L28
 543              	.L26:
 234:../Dave/Generated/AUTOMATION/automation.c ****     }
 235:../Dave/Generated/AUTOMATION/automation.c ****     else
 236:../Dave/Generated/AUTOMATION/automation.c ****     {
 237:../Dave/Generated/AUTOMATION/automation.c ****       status = AUTOMATION_STATUS_FAILURE;
 544              	 .loc 1 237 0
 545 00ac 0123     	 movs r3,#1
 546 00ae FB75     	 strb r3,[r7,#23]
 547 00b0 01E0     	 b .L28
 548              	.L25:
 238:../Dave/Generated/AUTOMATION/automation.c ****     }
 239:../Dave/Generated/AUTOMATION/automation.c ****   }
 240:../Dave/Generated/AUTOMATION/automation.c ****   else
 241:../Dave/Generated/AUTOMATION/automation.c ****   {
 242:../Dave/Generated/AUTOMATION/automation.c ****     status = AUTOMATION_STATUS_FAILURE;
 549              	 .loc 1 242 0
 550 00b2 0123     	 movs r3,#1
 551 00b4 FB75     	 strb r3,[r7,#23]
 552              	.L28:
 243:../Dave/Generated/AUTOMATION/automation.c ****   }
 244:../Dave/Generated/AUTOMATION/automation.c ****   return status;
 553              	 .loc 1 244 0
 554 00b6 FB7D     	 ldrb r3,[r7,#23]
 245:../Dave/Generated/AUTOMATION/automation.c **** }
 555              	 .loc 1 245 0
 556 00b8 1846     	 mov r0,r3
 557 00ba 1C37     	 adds r7,r7,#28
 558              	.LCFI32:
 559              	 .cfi_def_cfa_offset 12
 560 00bc BD46     	 mov sp,r7
 561              	.LCFI33:
 562              	 .cfi_def_cfa_register 13
 563              	 
 564 00be 90BD     	 pop {r4,r7,pc}
 565              	.L31:
 566              	 .align 2
 567              	.L30:
 568 00c0 00000000 	 .word AUTOMATION_0
 569 00c4 00000000 	 .word AUTOMATION_Task_Table
 570              	 .cfi_endproc
 571              	.LFE140:
 573              	 .section .text.AUTOMATION_DeregisterTask,"ax",%progbits
 574              	 .align 2
 575              	 .global AUTOMATION_DeregisterTask
 576              	 .thumb
 577              	 .thumb_func
 579              	AUTOMATION_DeregisterTask:
 580              	.LFB141:
 246:../Dave/Generated/AUTOMATION/automation.c **** 
 247:../Dave/Generated/AUTOMATION/automation.c **** /**
 248:../Dave/Generated/AUTOMATION/automation.c ****  * De-registers task function.
 249:../Dave/Generated/AUTOMATION/automation.c ****  * Task table is adjusted for this deleted entry.
 250:../Dave/Generated/AUTOMATION/automation.c ****  */
 251:../Dave/Generated/AUTOMATION/automation.c **** AUTOMATION_STATUS_t AUTOMATION_DeregisterTask(AUTOMATION_TASK_FUNCT_PTR_t task_ptr)
 252:../Dave/Generated/AUTOMATION/automation.c **** {
 581              	 .loc 1 252 0
 582              	 .cfi_startproc
 583              	 
 584              	 
 585 0000 80B5     	 push {r7,lr}
 586              	.LCFI34:
 587              	 .cfi_def_cfa_offset 8
 588              	 .cfi_offset 7,-8
 589              	 .cfi_offset 14,-4
 590 0002 84B0     	 sub sp,sp,#16
 591              	.LCFI35:
 592              	 .cfi_def_cfa_offset 24
 593 0004 00AF     	 add r7,sp,#0
 594              	.LCFI36:
 595              	 .cfi_def_cfa_register 7
 596 0006 7860     	 str r0,[r7,#4]
 253:../Dave/Generated/AUTOMATION/automation.c ****   AUTOMATION_STATUS_t status;
 254:../Dave/Generated/AUTOMATION/automation.c ****   uint8_t count;
 255:../Dave/Generated/AUTOMATION/automation.c ****   uint8_t match_index = AUTOMATION_NUM_TASKS + 1U;
 597              	 .loc 1 255 0
 598 0008 0723     	 movs r3,#7
 599 000a 7B73     	 strb r3,[r7,#13]
 256:../Dave/Generated/AUTOMATION/automation.c **** 
 257:../Dave/Generated/AUTOMATION/automation.c ****   /* Find the entry in the task table based on the task_ptr */
 258:../Dave/Generated/AUTOMATION/automation.c ****   for (count = 0U; count < AUTOMATION_NUM_TASKS; count++)
 600              	 .loc 1 258 0
 601 000c 0023     	 movs r3,#0
 602 000e BB73     	 strb r3,[r7,#14]
 603 0010 10E0     	 b .L33
 604              	.L36:
 259:../Dave/Generated/AUTOMATION/automation.c ****   {
 260:../Dave/Generated/AUTOMATION/automation.c ****     if (AUTOMATION_Task_Table[count].task_ptr == task_ptr)
 605              	 .loc 1 260 0
 606 0012 BA7B     	 ldrb r2,[r7,#14]
 607 0014 4249     	 ldr r1,.L44
 608 0016 1346     	 mov r3,r2
 609 0018 5B00     	 lsls r3,r3,#1
 610 001a 1344     	 add r3,r3,r2
 611 001c 9B00     	 lsls r3,r3,#2
 612 001e 0B44     	 add r3,r3,r1
 613 0020 1A68     	 ldr r2,[r3]
 614 0022 7B68     	 ldr r3,[r7,#4]
 615 0024 9A42     	 cmp r2,r3
 616 0026 02D1     	 bne .L34
 261:../Dave/Generated/AUTOMATION/automation.c ****     {
 262:../Dave/Generated/AUTOMATION/automation.c ****       match_index = count;
 617              	 .loc 1 262 0
 618 0028 BB7B     	 ldrb r3,[r7,#14]
 619 002a 7B73     	 strb r3,[r7,#13]
 263:../Dave/Generated/AUTOMATION/automation.c ****       break;
 620              	 .loc 1 263 0
 621 002c 05E0     	 b .L35
 622              	.L34:
 258:../Dave/Generated/AUTOMATION/automation.c ****   {
 623              	 .loc 1 258 0 discriminator 2
 624 002e BB7B     	 ldrb r3,[r7,#14]
 625 0030 0133     	 adds r3,r3,#1
 626 0032 BB73     	 strb r3,[r7,#14]
 627              	.L33:
 258:../Dave/Generated/AUTOMATION/automation.c ****   {
 628              	 .loc 1 258 0 is_stmt 0 discriminator 1
 629 0034 BB7B     	 ldrb r3,[r7,#14]
 630 0036 052B     	 cmp r3,#5
 631 0038 EBD9     	 bls .L36
 632              	.L35:
 264:../Dave/Generated/AUTOMATION/automation.c ****     }
 265:../Dave/Generated/AUTOMATION/automation.c ****   }
 266:../Dave/Generated/AUTOMATION/automation.c **** 
 267:../Dave/Generated/AUTOMATION/automation.c ****   /* Delete the task and remove from the task table */
 268:../Dave/Generated/AUTOMATION/automation.c ****   if ((AUTOMATION_NUM_TASKS + 1U) != match_index)
 633              	 .loc 1 268 0 is_stmt 1
 634 003a 7B7B     	 ldrb r3,[r7,#13]
 635 003c 072B     	 cmp r3,#7
 636 003e 68D0     	 beq .L37
 269:../Dave/Generated/AUTOMATION/automation.c ****   {
 270:../Dave/Generated/AUTOMATION/automation.c ****     status = (AUTOMATION_STATUS_t) SYSTIMER_StopTimer(AUTOMATION_Task_Table[match_index].task_timer
 637              	 .loc 1 270 0
 638 0040 7A7B     	 ldrb r2,[r7,#13]
 639 0042 3749     	 ldr r1,.L44
 640 0044 1346     	 mov r3,r2
 641 0046 5B00     	 lsls r3,r3,#1
 642 0048 1344     	 add r3,r3,r2
 643 004a 9B00     	 lsls r3,r3,#2
 644 004c 0B44     	 add r3,r3,r1
 645 004e 0833     	 adds r3,r3,#8
 646 0050 1B68     	 ldr r3,[r3]
 647 0052 1846     	 mov r0,r3
 648 0054 FFF7FEFF 	 bl SYSTIMER_StopTimer
 649 0058 0346     	 mov r3,r0
 650 005a FB73     	 strb r3,[r7,#15]
 271:../Dave/Generated/AUTOMATION/automation.c ****     if (AUTOMATION_STATUS_SUCCESS == status)
 651              	 .loc 1 271 0
 652 005c FB7B     	 ldrb r3,[r7,#15]
 653 005e 002B     	 cmp r3,#0
 654 0060 54D1     	 bne .L38
 272:../Dave/Generated/AUTOMATION/automation.c ****     {
 273:../Dave/Generated/AUTOMATION/automation.c ****       status = (AUTOMATION_STATUS_t) SYSTIMER_DeleteTimer(AUTOMATION_Task_Table[match_index].task_t
 655              	 .loc 1 273 0
 656 0062 7A7B     	 ldrb r2,[r7,#13]
 657 0064 2E49     	 ldr r1,.L44
 658 0066 1346     	 mov r3,r2
 659 0068 5B00     	 lsls r3,r3,#1
 660 006a 1344     	 add r3,r3,r2
 661 006c 9B00     	 lsls r3,r3,#2
 662 006e 0B44     	 add r3,r3,r1
 663 0070 0833     	 adds r3,r3,#8
 664 0072 1B68     	 ldr r3,[r3]
 665 0074 1846     	 mov r0,r3
 666 0076 FFF7FEFF 	 bl SYSTIMER_DeleteTimer
 667 007a 0346     	 mov r3,r0
 668 007c FB73     	 strb r3,[r7,#15]
 274:../Dave/Generated/AUTOMATION/automation.c ****       AUTOMATION_Handle.task_id--;
 669              	 .loc 1 274 0
 670 007e 294B     	 ldr r3,.L44+4
 671 0080 1B7C     	 ldrb r3,[r3,#16]
 672 0082 013B     	 subs r3,r3,#1
 673 0084 DAB2     	 uxtb r2,r3
 674 0086 274B     	 ldr r3,.L44+4
 675 0088 1A74     	 strb r2,[r3,#16]
 275:../Dave/Generated/AUTOMATION/automation.c ****       for (count = match_index; count <= AUTOMATION_Handle.task_id; count++)
 676              	 .loc 1 275 0
 677 008a 7B7B     	 ldrb r3,[r7,#13]
 678 008c BB73     	 strb r3,[r7,#14]
 679 008e 37E0     	 b .L39
 680              	.L40:
 276:../Dave/Generated/AUTOMATION/automation.c ****       {
 277:../Dave/Generated/AUTOMATION/automation.c ****         AUTOMATION_Task_Table[count].task_ptr = AUTOMATION_Task_Table[count + 1U].task_ptr;
 681              	 .loc 1 277 0 discriminator 3
 682 0090 BA7B     	 ldrb r2,[r7,#14]
 683 0092 BB7B     	 ldrb r3,[r7,#14]
 684 0094 591C     	 adds r1,r3,#1
 685 0096 2248     	 ldr r0,.L44
 686 0098 0B46     	 mov r3,r1
 687 009a 5B00     	 lsls r3,r3,#1
 688 009c 0B44     	 add r3,r3,r1
 689 009e 9B00     	 lsls r3,r3,#2
 690 00a0 0344     	 add r3,r3,r0
 691 00a2 1968     	 ldr r1,[r3]
 692 00a4 1E48     	 ldr r0,.L44
 693 00a6 1346     	 mov r3,r2
 694 00a8 5B00     	 lsls r3,r3,#1
 695 00aa 1344     	 add r3,r3,r2
 696 00ac 9B00     	 lsls r3,r3,#2
 697 00ae 0344     	 add r3,r3,r0
 698 00b0 1960     	 str r1,[r3]
 278:../Dave/Generated/AUTOMATION/automation.c ****         AUTOMATION_Task_Table[count].period = AUTOMATION_Task_Table[count + 1U].period;
 699              	 .loc 1 278 0 discriminator 3
 700 00b2 BA7B     	 ldrb r2,[r7,#14]
 701 00b4 BB7B     	 ldrb r3,[r7,#14]
 702 00b6 591C     	 adds r1,r3,#1
 703 00b8 1948     	 ldr r0,.L44
 704 00ba 0B46     	 mov r3,r1
 705 00bc 5B00     	 lsls r3,r3,#1
 706 00be 0B44     	 add r3,r3,r1
 707 00c0 9B00     	 lsls r3,r3,#2
 708 00c2 0344     	 add r3,r3,r0
 709 00c4 5968     	 ldr r1,[r3,#4]
 710 00c6 1648     	 ldr r0,.L44
 711 00c8 1346     	 mov r3,r2
 712 00ca 5B00     	 lsls r3,r3,#1
 713 00cc 1344     	 add r3,r3,r2
 714 00ce 9B00     	 lsls r3,r3,#2
 715 00d0 0344     	 add r3,r3,r0
 716 00d2 5960     	 str r1,[r3,#4]
 279:../Dave/Generated/AUTOMATION/automation.c ****         AUTOMATION_Task_Table[count].task_timer_id = AUTOMATION_Task_Table[count + 1U].task_timer_i
 717              	 .loc 1 279 0 discriminator 3
 718 00d4 BA7B     	 ldrb r2,[r7,#14]
 719 00d6 BB7B     	 ldrb r3,[r7,#14]
 720 00d8 591C     	 adds r1,r3,#1
 721 00da 1148     	 ldr r0,.L44
 722 00dc 0B46     	 mov r3,r1
 723 00de 5B00     	 lsls r3,r3,#1
 724 00e0 0B44     	 add r3,r3,r1
 725 00e2 9B00     	 lsls r3,r3,#2
 726 00e4 0344     	 add r3,r3,r0
 727 00e6 0833     	 adds r3,r3,#8
 728 00e8 1968     	 ldr r1,[r3]
 729 00ea 0D48     	 ldr r0,.L44
 730 00ec 1346     	 mov r3,r2
 731 00ee 5B00     	 lsls r3,r3,#1
 732 00f0 1344     	 add r3,r3,r2
 733 00f2 9B00     	 lsls r3,r3,#2
 734 00f4 0344     	 add r3,r3,r0
 735 00f6 0833     	 adds r3,r3,#8
 736 00f8 1960     	 str r1,[r3]
 275:../Dave/Generated/AUTOMATION/automation.c ****       {
 737              	 .loc 1 275 0 discriminator 3
 738 00fa BB7B     	 ldrb r3,[r7,#14]
 739 00fc 0133     	 adds r3,r3,#1
 740 00fe BB73     	 strb r3,[r7,#14]
 741              	.L39:
 275:../Dave/Generated/AUTOMATION/automation.c ****       {
 742              	 .loc 1 275 0 is_stmt 0 discriminator 1
 743 0100 084B     	 ldr r3,.L44+4
 744 0102 1B7C     	 ldrb r3,[r3,#16]
 745 0104 BA7B     	 ldrb r2,[r7,#14]
 746 0106 9A42     	 cmp r2,r3
 747 0108 C2D9     	 bls .L40
 748 010a 04E0     	 b .L42
 749              	.L38:
 280:../Dave/Generated/AUTOMATION/automation.c ****       }
 281:../Dave/Generated/AUTOMATION/automation.c ****     }
 282:../Dave/Generated/AUTOMATION/automation.c ****     else
 283:../Dave/Generated/AUTOMATION/automation.c ****     {
 284:../Dave/Generated/AUTOMATION/automation.c ****       status = AUTOMATION_STATUS_FAILURE;
 750              	 .loc 1 284 0 is_stmt 1
 751 010c 0123     	 movs r3,#1
 752 010e FB73     	 strb r3,[r7,#15]
 753 0110 01E0     	 b .L42
 754              	.L37:
 285:../Dave/Generated/AUTOMATION/automation.c ****     }
 286:../Dave/Generated/AUTOMATION/automation.c ****   }
 287:../Dave/Generated/AUTOMATION/automation.c ****   else
 288:../Dave/Generated/AUTOMATION/automation.c ****   {
 289:../Dave/Generated/AUTOMATION/automation.c ****     status = AUTOMATION_STATUS_FAILURE;
 755              	 .loc 1 289 0
 756 0112 0123     	 movs r3,#1
 757 0114 FB73     	 strb r3,[r7,#15]
 758              	.L42:
 290:../Dave/Generated/AUTOMATION/automation.c ****   }
 291:../Dave/Generated/AUTOMATION/automation.c ****   return (status);
 759              	 .loc 1 291 0
 760 0116 FB7B     	 ldrb r3,[r7,#15]
 292:../Dave/Generated/AUTOMATION/automation.c **** }
 761              	 .loc 1 292 0
 762 0118 1846     	 mov r0,r3
 763 011a 1037     	 adds r7,r7,#16
 764              	.LCFI37:
 765              	 .cfi_def_cfa_offset 8
 766 011c BD46     	 mov sp,r7
 767              	.LCFI38:
 768              	 .cfi_def_cfa_register 13
 769              	 
 770 011e 80BD     	 pop {r7,pc}
 771              	.L45:
 772              	 .align 2
 773              	.L44:
 774 0120 00000000 	 .word AUTOMATION_Task_Table
 775 0124 00000000 	 .word AUTOMATION_0
 776              	 .cfi_endproc
 777              	.LFE141:
 779              	 .section .text.AUTOMATION_PH_RegisterParamTable,"ax",%progbits
 780              	 .align 2
 781              	 .global AUTOMATION_PH_RegisterParamTable
 782              	 .thumb
 783              	 .thumb_func
 785              	AUTOMATION_PH_RegisterParamTable:
 786              	.LFB142:
 293:../Dave/Generated/AUTOMATION/automation.c **** 
 294:../Dave/Generated/AUTOMATION/automation.c **** 
 295:../Dave/Generated/AUTOMATION/automation.c **** #if (AUTOMATION_PH_ENABLE == 1U)
 296:../Dave/Generated/AUTOMATION/automation.c **** 
 297:../Dave/Generated/AUTOMATION/automation.c **** /**
 298:../Dave/Generated/AUTOMATION/automation.c ****  * This function will save the app parameter table pointer in the AUTOMATION_PH_PARAMHANDLE.
 299:../Dave/Generated/AUTOMATION/automation.c ****  * It maintains the relation between app_id and parameter table pointer.
 300:../Dave/Generated/AUTOMATION/automation.c ****  */
 301:../Dave/Generated/AUTOMATION/automation.c **** AUTOMATION_STATUS_t AUTOMATION_PH_RegisterParamTable(uint8_t app_id,
 302:../Dave/Generated/AUTOMATION/automation.c ****     AUTOMATION_PH_PARAM_ENTRY_t* app_param_table_ptr)
 303:../Dave/Generated/AUTOMATION/automation.c **** {
 787              	 .loc 1 303 0
 788              	 .cfi_startproc
 789              	 
 790              	 
 791              	 
 792 0000 80B4     	 push {r7}
 793              	.LCFI39:
 794              	 .cfi_def_cfa_offset 4
 795              	 .cfi_offset 7,-4
 796 0002 85B0     	 sub sp,sp,#20
 797              	.LCFI40:
 798              	 .cfi_def_cfa_offset 24
 799 0004 00AF     	 add r7,sp,#0
 800              	.LCFI41:
 801              	 .cfi_def_cfa_register 7
 802 0006 0346     	 mov r3,r0
 803 0008 3960     	 str r1,[r7]
 804 000a FB71     	 strb r3,[r7,#7]
 304:../Dave/Generated/AUTOMATION/automation.c ****   AUTOMATION_STATUS_t status;
 305:../Dave/Generated/AUTOMATION/automation.c **** 
 306:../Dave/Generated/AUTOMATION/automation.c ****   if (AUTOMATION_NUM_APPS > app_id)
 805              	 .loc 1 306 0
 806 000c FB79     	 ldrb r3,[r7,#7]
 807 000e 002B     	 cmp r3,#0
 808 0010 07D1     	 bne .L47
 307:../Dave/Generated/AUTOMATION/automation.c ****   {
 308:../Dave/Generated/AUTOMATION/automation.c ****     /* App param table pointer */
 309:../Dave/Generated/AUTOMATION/automation.c ****     AUTOMATION_PH_Param_Table[app_id] = app_param_table_ptr;
 809              	 .loc 1 309 0
 810 0012 FB79     	 ldrb r3,[r7,#7]
 811 0014 0749     	 ldr r1,.L50
 812 0016 3A68     	 ldr r2,[r7]
 813 0018 41F82320 	 str r2,[r1,r3,lsl#2]
 310:../Dave/Generated/AUTOMATION/automation.c ****     status = AUTOMATION_STATUS_SUCCESS;
 814              	 .loc 1 310 0
 815 001c 0023     	 movs r3,#0
 816 001e FB73     	 strb r3,[r7,#15]
 817 0020 01E0     	 b .L48
 818              	.L47:
 311:../Dave/Generated/AUTOMATION/automation.c ****   }
 312:../Dave/Generated/AUTOMATION/automation.c ****   else
 313:../Dave/Generated/AUTOMATION/automation.c ****   {
 314:../Dave/Generated/AUTOMATION/automation.c ****     status = AUTOMATION_STATUS_NUM_PARAM_EXCEEDED;
 819              	 .loc 1 314 0
 820 0022 0623     	 movs r3,#6
 821 0024 FB73     	 strb r3,[r7,#15]
 822              	.L48:
 315:../Dave/Generated/AUTOMATION/automation.c ****   }
 316:../Dave/Generated/AUTOMATION/automation.c ****   return status;
 823              	 .loc 1 316 0
 824 0026 FB7B     	 ldrb r3,[r7,#15]
 317:../Dave/Generated/AUTOMATION/automation.c **** }
 825              	 .loc 1 317 0
 826 0028 1846     	 mov r0,r3
 827 002a 1437     	 adds r7,r7,#20
 828              	.LCFI42:
 829              	 .cfi_def_cfa_offset 4
 830 002c BD46     	 mov sp,r7
 831              	.LCFI43:
 832              	 .cfi_def_cfa_register 13
 833              	 
 834 002e 5DF8047B 	 ldr r7,[sp],#4
 835              	.LCFI44:
 836              	 .cfi_restore 7
 837              	 .cfi_def_cfa_offset 0
 838 0032 7047     	 bx lr
 839              	.L51:
 840              	 .align 2
 841              	.L50:
 842 0034 00000000 	 .word AUTOMATION_PH_Param_Table
 843              	 .cfi_endproc
 844              	.LFE142:
 846              	 .section .text.AUTOMATION_PH_ParamSequencer,"ax",%progbits
 847              	 .align 2
 848              	 .global AUTOMATION_PH_ParamSequencer
 849              	 .thumb
 850              	 .thumb_func
 852              	AUTOMATION_PH_ParamSequencer:
 853              	.LFB143:
 318:../Dave/Generated/AUTOMATION/automation.c **** 
 319:../Dave/Generated/AUTOMATION/automation.c **** /**
 320:../Dave/Generated/AUTOMATION/automation.c ****  * This will take action on the entry in the parameter buffer and update the status
 321:../Dave/Generated/AUTOMATION/automation.c ****  */
 322:../Dave/Generated/AUTOMATION/automation.c **** void AUTOMATION_PH_ParamSequencer(void)
 323:../Dave/Generated/AUTOMATION/automation.c **** {
 854              	 .loc 1 323 0
 855              	 .cfi_startproc
 856              	 
 857              	 
 858 0000 80B5     	 push {r7,lr}
 859              	.LCFI45:
 860              	 .cfi_def_cfa_offset 8
 861              	 .cfi_offset 7,-8
 862              	 .cfi_offset 14,-4
 863 0002 82B0     	 sub sp,sp,#8
 864              	.LCFI46:
 865              	 .cfi_def_cfa_offset 16
 866 0004 00AF     	 add r7,sp,#0
 867              	.LCFI47:
 868              	 .cfi_def_cfa_register 7
 324:../Dave/Generated/AUTOMATION/automation.c ****   uint8_t interface_count; /* to scan interface IDs */
 325:../Dave/Generated/AUTOMATION/automation.c ****   uint8_t param_table_index; /* app ID */
 326:../Dave/Generated/AUTOMATION/automation.c ****   uint8_t param_id; /* parameter ID */
 327:../Dave/Generated/AUTOMATION/automation.c ****   uint32_t scale; /* scale of the parameter to convert target value in physical value*/
 328:../Dave/Generated/AUTOMATION/automation.c **** 
 329:../Dave/Generated/AUTOMATION/automation.c ****   /* Scan each registered interface buffer to execute the requests */
 330:../Dave/Generated/AUTOMATION/automation.c ****   for(interface_count = 0U; interface_count < AUTOMATION_NUM_INTERFACES; interface_count++)
 869              	 .loc 1 330 0
 870 0006 0023     	 movs r3,#0
 871 0008 FB71     	 strb r3,[r7,#7]
 872 000a 57E0     	 b .L53
 873              	.L58:
 331:../Dave/Generated/AUTOMATION/automation.c ****   {
 332:../Dave/Generated/AUTOMATION/automation.c ****     /* Check if there is valid entry in the buffer */
 333:../Dave/Generated/AUTOMATION/automation.c ****     if (AUTOMATION_PH_Parameter_Buf[interface_count].status == AUTOMATION_PH_STATUS_ACTIVE)
 874              	 .loc 1 333 0
 875 000c FB79     	 ldrb r3,[r7,#7]
 876 000e 2E4A     	 ldr r2,.L59
 877 0010 1B01     	 lsls r3,r3,#4
 878 0012 1344     	 add r3,r3,r2
 879 0014 0833     	 adds r3,r3,#8
 880 0016 5B78     	 ldrb r3,[r3,#1]
 881 0018 012B     	 cmp r3,#1
 882 001a 4CD1     	 bne .L54
 334:../Dave/Generated/AUTOMATION/automation.c ****     {
 335:../Dave/Generated/AUTOMATION/automation.c ****       /* execute the buffer entry */
 336:../Dave/Generated/AUTOMATION/automation.c ****       switch(AUTOMATION_PH_Parameter_Buf[interface_count].command)
 883              	 .loc 1 336 0
 884 001c FB79     	 ldrb r3,[r7,#7]
 885 001e 2A4A     	 ldr r2,.L59
 886 0020 1B01     	 lsls r3,r3,#4
 887 0022 1344     	 add r3,r3,r2
 888 0024 0833     	 adds r3,r3,#8
 889 0026 1B78     	 ldrb r3,[r3]
 890 0028 002B     	 cmp r3,#0
 891 002a 02D0     	 beq .L56
 892 002c 012B     	 cmp r3,#1
 893 002e 05D0     	 beq .L57
 337:../Dave/Generated/AUTOMATION/automation.c ****       {
 338:../Dave/Generated/AUTOMATION/automation.c ****         case AUTOMATION_PH_COMMAND_SET :
 339:../Dave/Generated/AUTOMATION/automation.c ****           /* Write the parameter value */
 340:../Dave/Generated/AUTOMATION/automation.c ****           AUTOMATION_PH_ParamSet(interface_count);
 341:../Dave/Generated/AUTOMATION/automation.c ****           break;
 342:../Dave/Generated/AUTOMATION/automation.c **** 
 343:../Dave/Generated/AUTOMATION/automation.c ****         case AUTOMATION_PH_COMMAND_GET :
 344:../Dave/Generated/AUTOMATION/automation.c ****         /* Read the value of the parameter based upon app_id, param_id and scale */
 345:../Dave/Generated/AUTOMATION/automation.c ****         param_table_index = AUTOMATION_PH_Parameter_Buf[interface_count].app_id;
 346:../Dave/Generated/AUTOMATION/automation.c ****         param_id = AUTOMATION_PH_Parameter_Buf[interface_count].param_id;
 347:../Dave/Generated/AUTOMATION/automation.c ****         scale = AUTOMATION_PH_Param_Table[param_table_index][param_id].scale;
 348:../Dave/Generated/AUTOMATION/automation.c **** 
 349:../Dave/Generated/AUTOMATION/automation.c ****         AUTOMATION_PH_Parameter_Buf[interface_count].value =
 350:../Dave/Generated/AUTOMATION/automation.c ****         (int32_t)((*AUTOMATION_PH_Param_Table[param_table_index][param_id].param_addr * (int32_t)sc
 351:../Dave/Generated/AUTOMATION/automation.c **** 
 352:../Dave/Generated/AUTOMATION/automation.c ****         /* Change the status to READY so that interafce can read the result and send new request */
 353:../Dave/Generated/AUTOMATION/automation.c ****         AUTOMATION_PH_Parameter_Buf[interface_count].status = AUTOMATION_PH_STATUS_READY;
 354:../Dave/Generated/AUTOMATION/automation.c **** 
 355:../Dave/Generated/AUTOMATION/automation.c ****         break;
 356:../Dave/Generated/AUTOMATION/automation.c **** 
 357:../Dave/Generated/AUTOMATION/automation.c ****         default :
 358:../Dave/Generated/AUTOMATION/automation.c ****         break;
 894              	 .loc 1 358 0
 895 0030 41E0     	 b .L54
 896              	.L56:
 340:../Dave/Generated/AUTOMATION/automation.c ****           break;
 897              	 .loc 1 340 0
 898 0032 FB79     	 ldrb r3,[r7,#7]
 899 0034 1846     	 mov r0,r3
 900 0036 FFF7FEFF 	 bl AUTOMATION_PH_ParamSet
 341:../Dave/Generated/AUTOMATION/automation.c **** 
 901              	 .loc 1 341 0
 902 003a 3CE0     	 b .L54
 903              	.L57:
 345:../Dave/Generated/AUTOMATION/automation.c ****         param_id = AUTOMATION_PH_Parameter_Buf[interface_count].param_id;
 904              	 .loc 1 345 0
 905 003c FB79     	 ldrb r3,[r7,#7]
 906 003e 224A     	 ldr r2,.L59
 907 0040 1B01     	 lsls r3,r3,#4
 908 0042 1344     	 add r3,r3,r2
 909 0044 0833     	 adds r3,r3,#8
 910 0046 9B78     	 ldrb r3,[r3,#2]
 911 0048 BB71     	 strb r3,[r7,#6]
 346:../Dave/Generated/AUTOMATION/automation.c ****         scale = AUTOMATION_PH_Param_Table[param_table_index][param_id].scale;
 912              	 .loc 1 346 0
 913 004a FB79     	 ldrb r3,[r7,#7]
 914 004c 1E4A     	 ldr r2,.L59
 915 004e 1B01     	 lsls r3,r3,#4
 916 0050 1344     	 add r3,r3,r2
 917 0052 0833     	 adds r3,r3,#8
 918 0054 DB78     	 ldrb r3,[r3,#3]
 919 0056 7B71     	 strb r3,[r7,#5]
 347:../Dave/Generated/AUTOMATION/automation.c **** 
 920              	 .loc 1 347 0
 921 0058 BB79     	 ldrb r3,[r7,#6]
 922 005a 1C4A     	 ldr r2,.L59+4
 923 005c 52F82310 	 ldr r1,[r2,r3,lsl#2]
 924 0060 7A79     	 ldrb r2,[r7,#5]
 925 0062 1346     	 mov r3,r2
 926 0064 DB00     	 lsls r3,r3,#3
 927 0066 9B1A     	 subs r3,r3,r2
 928 0068 9B00     	 lsls r3,r3,#2
 929 006a 0B44     	 add r3,r3,r1
 930 006c DB68     	 ldr r3,[r3,#12]
 931 006e 3B60     	 str r3,[r7]
 349:../Dave/Generated/AUTOMATION/automation.c ****         (int32_t)((*AUTOMATION_PH_Param_Table[param_table_index][param_id].param_addr * (int32_t)sc
 932              	 .loc 1 349 0
 933 0070 F979     	 ldrb r1,[r7,#7]
 350:../Dave/Generated/AUTOMATION/automation.c **** 
 934              	 .loc 1 350 0
 935 0072 BB79     	 ldrb r3,[r7,#6]
 936 0074 154A     	 ldr r2,.L59+4
 937 0076 52F82300 	 ldr r0,[r2,r3,lsl#2]
 938 007a 7A79     	 ldrb r2,[r7,#5]
 939 007c 1346     	 mov r3,r2
 940 007e DB00     	 lsls r3,r3,#3
 941 0080 9B1A     	 subs r3,r3,r2
 942 0082 9B00     	 lsls r3,r3,#2
 943 0084 0344     	 add r3,r3,r0
 944 0086 1B68     	 ldr r3,[r3]
 945 0088 1B68     	 ldr r3,[r3]
 946 008a 3A68     	 ldr r2,[r7]
 947 008c 02FB03F3 	 mul r3,r2,r3
 948 0090 0F4A     	 ldr r2,.L59+8
 949 0092 82FB0302 	 smull r0,r2,r2,r3
 950 0096 1A44     	 add r2,r2,r3
 951 0098 9213     	 asrs r2,r2,#14
 952 009a DB17     	 asrs r3,r3,#31
 953 009c D21A     	 subs r2,r2,r3
 349:../Dave/Generated/AUTOMATION/automation.c ****         (int32_t)((*AUTOMATION_PH_Param_Table[param_table_index][param_id].param_addr * (int32_t)sc
 954              	 .loc 1 349 0
 955 009e 0A48     	 ldr r0,.L59
 956 00a0 0B01     	 lsls r3,r1,#4
 957 00a2 0344     	 add r3,r3,r0
 958 00a4 1A60     	 str r2,[r3]
 353:../Dave/Generated/AUTOMATION/automation.c **** 
 959              	 .loc 1 353 0
 960 00a6 FB79     	 ldrb r3,[r7,#7]
 961 00a8 074A     	 ldr r2,.L59
 962 00aa 1B01     	 lsls r3,r3,#4
 963 00ac 1344     	 add r3,r3,r2
 964 00ae 0833     	 adds r3,r3,#8
 965 00b0 0022     	 movs r2,#0
 966 00b2 5A70     	 strb r2,[r3,#1]
 355:../Dave/Generated/AUTOMATION/automation.c **** 
 967              	 .loc 1 355 0
 968 00b4 00BF     	 nop
 969              	.L54:
 330:../Dave/Generated/AUTOMATION/automation.c ****   {
 970              	 .loc 1 330 0 discriminator 2
 971 00b6 FB79     	 ldrb r3,[r7,#7]
 972 00b8 0133     	 adds r3,r3,#1
 973 00ba FB71     	 strb r3,[r7,#7]
 974              	.L53:
 330:../Dave/Generated/AUTOMATION/automation.c ****   {
 975              	 .loc 1 330 0 is_stmt 0 discriminator 1
 976 00bc FB79     	 ldrb r3,[r7,#7]
 977 00be 002B     	 cmp r3,#0
 978 00c0 A4D0     	 beq .L58
 359:../Dave/Generated/AUTOMATION/automation.c ****       }
 360:../Dave/Generated/AUTOMATION/automation.c **** 
 361:../Dave/Generated/AUTOMATION/automation.c ****     }
 362:../Dave/Generated/AUTOMATION/automation.c ****   }
 363:../Dave/Generated/AUTOMATION/automation.c **** }
 979              	 .loc 1 363 0 is_stmt 1
 980 00c2 0837     	 adds r7,r7,#8
 981              	.LCFI48:
 982              	 .cfi_def_cfa_offset 8
 983 00c4 BD46     	 mov sp,r7
 984              	.LCFI49:
 985              	 .cfi_def_cfa_register 13
 986              	 
 987 00c6 80BD     	 pop {r7,pc}
 988              	.L60:
 989              	 .align 2
 990              	.L59:
 991 00c8 00000000 	 .word AUTOMATION_PH_Parameter_Buf
 992 00cc 00000000 	 .word AUTOMATION_PH_Param_Table
 993 00d0 03000180 	 .word -2147418109
 994              	 .cfi_endproc
 995              	.LFE143:
 997              	 .section .text.AUTOMATION_PH_ParamSet,"ax",%progbits
 998              	 .align 2
 999              	 .thumb
 1000              	 .thumb_func
 1002              	AUTOMATION_PH_ParamSet:
 1003              	.LFB144:
 364:../Dave/Generated/AUTOMATION/automation.c **** 
 365:../Dave/Generated/AUTOMATION/automation.c **** /**
 366:../Dave/Generated/AUTOMATION/automation.c ****  * Automation Parameter set functionality
 367:../Dave/Generated/AUTOMATION/automation.c ****  */
 368:../Dave/Generated/AUTOMATION/automation.c **** static void AUTOMATION_PH_ParamSet(uint8_t interface_count)
 369:../Dave/Generated/AUTOMATION/automation.c **** {
 1004              	 .loc 1 369 0
 1005              	 .cfi_startproc
 1006              	 
 1007              	 
 1008 0000 80B5     	 push {r7,lr}
 1009              	.LCFI50:
 1010              	 .cfi_def_cfa_offset 8
 1011              	 .cfi_offset 7,-8
 1012              	 .cfi_offset 14,-4
 1013 0002 8AB0     	 sub sp,sp,#40
 1014              	.LCFI51:
 1015              	 .cfi_def_cfa_offset 48
 1016 0004 00AF     	 add r7,sp,#0
 1017              	.LCFI52:
 1018              	 .cfi_def_cfa_register 7
 1019 0006 0346     	 mov r3,r0
 1020 0008 FB71     	 strb r3,[r7,#7]
 370:../Dave/Generated/AUTOMATION/automation.c ****   AUTOMATION_STATUS_t app_api_status = AUTOMATION_STATUS_SUCCESS;
 1021              	 .loc 1 370 0
 1022 000a 0023     	 movs r3,#0
 1023 000c 87F82730 	 strb r3,[r7,#39]
 371:../Dave/Generated/AUTOMATION/automation.c ****   uint8_t param_table_index = AUTOMATION_PH_Parameter_Buf[interface_count].app_id;
 1024              	 .loc 1 371 0
 1025 0010 FB79     	 ldrb r3,[r7,#7]
 1026 0012 574A     	 ldr r2,.L69
 1027 0014 1B01     	 lsls r3,r3,#4
 1028 0016 1344     	 add r3,r3,r2
 1029 0018 0833     	 adds r3,r3,#8
 1030 001a 9B78     	 ldrb r3,[r3,#2]
 1031 001c 87F82630 	 strb r3,[r7,#38]
 372:../Dave/Generated/AUTOMATION/automation.c ****   uint8_t param_id = AUTOMATION_PH_Parameter_Buf[interface_count].param_id;
 1032              	 .loc 1 372 0
 1033 0020 FB79     	 ldrb r3,[r7,#7]
 1034 0022 534A     	 ldr r2,.L69
 1035 0024 1B01     	 lsls r3,r3,#4
 1036 0026 1344     	 add r3,r3,r2
 1037 0028 0833     	 adds r3,r3,#8
 1038 002a DB78     	 ldrb r3,[r3,#3]
 1039 002c 87F82530 	 strb r3,[r7,#37]
 373:../Dave/Generated/AUTOMATION/automation.c ****   AUTOMATION_PH_SET_FUNCT_PTR_t param_set_func_ptr;
 374:../Dave/Generated/AUTOMATION/automation.c ****   void* apphandle_ptr; /* App handle pointer */
 375:../Dave/Generated/AUTOMATION/automation.c ****   uint8_t write_access; /* Write access */
 376:../Dave/Generated/AUTOMATION/automation.c ****   int32_t value, min, max;
 377:../Dave/Generated/AUTOMATION/automation.c ****   uint32_t inv_scale;
 378:../Dave/Generated/AUTOMATION/automation.c **** 
 379:../Dave/Generated/AUTOMATION/automation.c ****   /* This will set parameter value as per request */
 380:../Dave/Generated/AUTOMATION/automation.c ****   param_set_func_ptr = AUTOMATION_PH_Param_Table[param_table_index][param_id].setptr;
 1040              	 .loc 1 380 0
 1041 0030 97F82630 	 ldrb r3,[r7,#38]
 1042 0034 4F4A     	 ldr r2,.L69+4
 1043 0036 52F82310 	 ldr r1,[r2,r3,lsl#2]
 1044 003a 97F82520 	 ldrb r2,[r7,#37]
 1045 003e 1346     	 mov r3,r2
 1046 0040 DB00     	 lsls r3,r3,#3
 1047 0042 9B1A     	 subs r3,r3,r2
 1048 0044 9B00     	 lsls r3,r3,#2
 1049 0046 0B44     	 add r3,r3,r1
 1050 0048 5B69     	 ldr r3,[r3,#20]
 1051 004a 3B62     	 str r3,[r7,#32]
 381:../Dave/Generated/AUTOMATION/automation.c ****   value = AUTOMATION_PH_Parameter_Buf[interface_count].value;
 1052              	 .loc 1 381 0
 1053 004c FB79     	 ldrb r3,[r7,#7]
 1054 004e 484A     	 ldr r2,.L69
 1055 0050 1B01     	 lsls r3,r3,#4
 1056 0052 1344     	 add r3,r3,r2
 1057 0054 1B68     	 ldr r3,[r3]
 1058 0056 FB61     	 str r3,[r7,#28]
 382:../Dave/Generated/AUTOMATION/automation.c ****   if (param_set_func_ptr != NULL)
 1059              	 .loc 1 382 0
 1060 0058 3B6A     	 ldr r3,[r7,#32]
 1061 005a 002B     	 cmp r3,#0
 1062 005c 0DD0     	 beq .L62
 383:../Dave/Generated/AUTOMATION/automation.c ****   {
 384:../Dave/Generated/AUTOMATION/automation.c ****     /* App API is available to set parameter */
 385:../Dave/Generated/AUTOMATION/automation.c ****     apphandle_ptr = (void *)AUTOMATION_App_Table[param_table_index].apphandle_ptr;
 1063              	 .loc 1 385 0
 1064 005e 97F82630 	 ldrb r3,[r7,#38]
 1065 0062 454A     	 ldr r2,.L69+8
 1066 0064 52F83330 	 ldr r3,[r2,r3,lsl#3]
 1067 0068 BB61     	 str r3,[r7,#24]
 386:../Dave/Generated/AUTOMATION/automation.c ****     app_api_status = (AUTOMATION_STATUS_t)param_set_func_ptr(apphandle_ptr, value);
 1068              	 .loc 1 386 0
 1069 006a 3B6A     	 ldr r3,[r7,#32]
 1070 006c B869     	 ldr r0,[r7,#24]
 1071 006e F969     	 ldr r1,[r7,#28]
 1072 0070 9847     	 blx r3
 1073 0072 0346     	 mov r3,r0
 1074 0074 87F82730 	 strb r3,[r7,#39]
 1075 0078 63E0     	 b .L63
 1076              	.L62:
 387:../Dave/Generated/AUTOMATION/automation.c ****   }
 388:../Dave/Generated/AUTOMATION/automation.c ****   else
 389:../Dave/Generated/AUTOMATION/automation.c ****   {
 390:../Dave/Generated/AUTOMATION/automation.c ****     /* App API function not available to set,hence access parameter address and set value */
 391:../Dave/Generated/AUTOMATION/automation.c ****     min = AUTOMATION_PH_Param_Table[param_table_index][param_id].minval;
 1077              	 .loc 1 391 0
 1078 007a 97F82630 	 ldrb r3,[r7,#38]
 1079 007e 3D4A     	 ldr r2,.L69+4
 1080 0080 52F82310 	 ldr r1,[r2,r3,lsl#2]
 1081 0084 97F82520 	 ldrb r2,[r7,#37]
 1082 0088 1346     	 mov r3,r2
 1083 008a DB00     	 lsls r3,r3,#3
 1084 008c 9B1A     	 subs r3,r3,r2
 1085 008e 9B00     	 lsls r3,r3,#2
 1086 0090 0B44     	 add r3,r3,r1
 1087 0092 5B68     	 ldr r3,[r3,#4]
 1088 0094 7B61     	 str r3,[r7,#20]
 392:../Dave/Generated/AUTOMATION/automation.c ****     max = AUTOMATION_PH_Param_Table[param_table_index][param_id].maxval;
 1089              	 .loc 1 392 0
 1090 0096 97F82630 	 ldrb r3,[r7,#38]
 1091 009a 364A     	 ldr r2,.L69+4
 1092 009c 52F82310 	 ldr r1,[r2,r3,lsl#2]
 1093 00a0 97F82520 	 ldrb r2,[r7,#37]
 1094 00a4 1346     	 mov r3,r2
 1095 00a6 DB00     	 lsls r3,r3,#3
 1096 00a8 9B1A     	 subs r3,r3,r2
 1097 00aa 9B00     	 lsls r3,r3,#2
 1098 00ac 0B44     	 add r3,r3,r1
 1099 00ae 9B68     	 ldr r3,[r3,#8]
 1100 00b0 3B61     	 str r3,[r7,#16]
 393:../Dave/Generated/AUTOMATION/automation.c ****     write_access = AUTOMATION_PH_Param_Table[param_table_index][param_id].write_access;
 1101              	 .loc 1 393 0
 1102 00b2 97F82630 	 ldrb r3,[r7,#38]
 1103 00b6 2F4A     	 ldr r2,.L69+4
 1104 00b8 52F82310 	 ldr r1,[r2,r3,lsl#2]
 1105 00bc 97F82520 	 ldrb r2,[r7,#37]
 1106 00c0 1346     	 mov r3,r2
 1107 00c2 DB00     	 lsls r3,r3,#3
 1108 00c4 9B1A     	 subs r3,r3,r2
 1109 00c6 9B00     	 lsls r3,r3,#2
 1110 00c8 0B44     	 add r3,r3,r1
 1111 00ca 1B7E     	 ldrb r3,[r3,#24]
 1112 00cc FB73     	 strb r3,[r7,#15]
 394:../Dave/Generated/AUTOMATION/automation.c ****     inv_scale = AUTOMATION_PH_Param_Table[param_table_index][param_id].inv_scale;
 1113              	 .loc 1 394 0
 1114 00ce 97F82630 	 ldrb r3,[r7,#38]
 1115 00d2 284A     	 ldr r2,.L69+4
 1116 00d4 52F82310 	 ldr r1,[r2,r3,lsl#2]
 1117 00d8 97F82520 	 ldrb r2,[r7,#37]
 1118 00dc 1346     	 mov r3,r2
 1119 00de DB00     	 lsls r3,r3,#3
 1120 00e0 9B1A     	 subs r3,r3,r2
 1121 00e2 9B00     	 lsls r3,r3,#2
 1122 00e4 0B44     	 add r3,r3,r1
 1123 00e6 1B69     	 ldr r3,[r3,#16]
 1124 00e8 BB60     	 str r3,[r7,#8]
 395:../Dave/Generated/AUTOMATION/automation.c ****     /* Limit checking for the value */
 396:../Dave/Generated/AUTOMATION/automation.c ****     if ((value < min) || (value > max))
 1125              	 .loc 1 396 0
 1126 00ea FA69     	 ldr r2,[r7,#28]
 1127 00ec 7B69     	 ldr r3,[r7,#20]
 1128 00ee 9A42     	 cmp r2,r3
 1129 00f0 03DB     	 blt .L64
 1130              	 .loc 1 396 0 is_stmt 0 discriminator 1
 1131 00f2 FA69     	 ldr r2,[r7,#28]
 1132 00f4 3B69     	 ldr r3,[r7,#16]
 1133 00f6 9A42     	 cmp r2,r3
 1134 00f8 03DD     	 ble .L65
 1135              	.L64:
 397:../Dave/Generated/AUTOMATION/automation.c ****     {
 398:../Dave/Generated/AUTOMATION/automation.c ****       app_api_status = AUTOMATION_STATUS_INVALID_PARAM;
 1136              	 .loc 1 398 0 is_stmt 1
 1137 00fa 0223     	 movs r3,#2
 1138 00fc 87F82730 	 strb r3,[r7,#39]
 1139 0100 1FE0     	 b .L63
 1140              	.L65:
 399:../Dave/Generated/AUTOMATION/automation.c ****     }
 400:../Dave/Generated/AUTOMATION/automation.c ****     else if (write_access != (uint8_t)AUTOMATION_PH_WRITE_ACCESS_ALLOWED)
 1141              	 .loc 1 400 0
 1142 0102 FB7B     	 ldrb r3,[r7,#15]
 1143 0104 012B     	 cmp r3,#1
 1144 0106 03D0     	 beq .L66
 401:../Dave/Generated/AUTOMATION/automation.c ****     {
 402:../Dave/Generated/AUTOMATION/automation.c ****       app_api_status = AUTOMATION_STATUS_PERMISSION_DENIED;
 1145              	 .loc 1 402 0
 1146 0108 0323     	 movs r3,#3
 1147 010a 87F82730 	 strb r3,[r7,#39]
 1148 010e 18E0     	 b .L63
 1149              	.L66:
 403:../Dave/Generated/AUTOMATION/automation.c ****     }
 404:../Dave/Generated/AUTOMATION/automation.c ****     else
 405:../Dave/Generated/AUTOMATION/automation.c ****     {
 406:../Dave/Generated/AUTOMATION/automation.c ****       /* Valid value to set */
 407:../Dave/Generated/AUTOMATION/automation.c ****       *AUTOMATION_PH_Param_Table[param_table_index][param_id].param_addr = (value * (int32_t)inv_sc
 1150              	 .loc 1 407 0
 1151 0110 97F82630 	 ldrb r3,[r7,#38]
 1152 0114 174A     	 ldr r2,.L69+4
 1153 0116 52F82310 	 ldr r1,[r2,r3,lsl#2]
 1154 011a 97F82520 	 ldrb r2,[r7,#37]
 1155 011e 1346     	 mov r3,r2
 1156 0120 DB00     	 lsls r3,r3,#3
 1157 0122 9B1A     	 subs r3,r3,r2
 1158 0124 9B00     	 lsls r3,r3,#2
 1159 0126 0B44     	 add r3,r3,r1
 1160 0128 1A68     	 ldr r2,[r3]
 1161 012a BB68     	 ldr r3,[r7,#8]
 1162 012c F969     	 ldr r1,[r7,#28]
 1163 012e 01FB03F3 	 mul r3,r1,r3
 1164 0132 1249     	 ldr r1,.L69+12
 1165 0134 81FB0301 	 smull r0,r1,r1,r3
 1166 0138 1944     	 add r1,r1,r3
 1167 013a 8913     	 asrs r1,r1,#14
 1168 013c DB17     	 asrs r3,r3,#31
 1169 013e CB1A     	 subs r3,r1,r3
 1170 0140 1360     	 str r3,[r2]
 1171              	.L63:
 408:../Dave/Generated/AUTOMATION/automation.c ****     }
 409:../Dave/Generated/AUTOMATION/automation.c ****   }
 410:../Dave/Generated/AUTOMATION/automation.c ****   /* Change the status to READY so that interafce can read the result and send new request */
 411:../Dave/Generated/AUTOMATION/automation.c ****   if (app_api_status == AUTOMATION_STATUS_SUCCESS)
 1172              	 .loc 1 411 0
 1173 0142 97F82730 	 ldrb r3,[r7,#39]
 1174 0146 002B     	 cmp r3,#0
 1175 0148 07D1     	 bne .L67
 412:../Dave/Generated/AUTOMATION/automation.c ****   {
 413:../Dave/Generated/AUTOMATION/automation.c ****     AUTOMATION_PH_Parameter_Buf[interface_count].status = AUTOMATION_PH_STATUS_READY;
 1176              	 .loc 1 413 0
 1177 014a FB79     	 ldrb r3,[r7,#7]
 1178 014c 084A     	 ldr r2,.L69
 1179 014e 1B01     	 lsls r3,r3,#4
 1180 0150 1344     	 add r3,r3,r2
 1181 0152 0833     	 adds r3,r3,#8
 1182 0154 0022     	 movs r2,#0
 1183 0156 5A70     	 strb r2,[r3,#1]
 1184 0158 06E0     	 b .L61
 1185              	.L67:
 414:../Dave/Generated/AUTOMATION/automation.c ****   }
 415:../Dave/Generated/AUTOMATION/automation.c ****   else
 416:../Dave/Generated/AUTOMATION/automation.c ****   {
 417:../Dave/Generated/AUTOMATION/automation.c ****     AUTOMATION_PH_Parameter_Buf[interface_count].status = AUTOMATION_PH_STATUS_FAILED;
 1186              	 .loc 1 417 0
 1187 015a FB79     	 ldrb r3,[r7,#7]
 1188 015c 044A     	 ldr r2,.L69
 1189 015e 1B01     	 lsls r3,r3,#4
 1190 0160 1344     	 add r3,r3,r2
 1191 0162 0833     	 adds r3,r3,#8
 1192 0164 0222     	 movs r2,#2
 1193 0166 5A70     	 strb r2,[r3,#1]
 1194              	.L61:
 418:../Dave/Generated/AUTOMATION/automation.c ****   }
 419:../Dave/Generated/AUTOMATION/automation.c **** }
 1195              	 .loc 1 419 0
 1196 0168 2837     	 adds r7,r7,#40
 1197              	.LCFI53:
 1198              	 .cfi_def_cfa_offset 8
 1199 016a BD46     	 mov sp,r7
 1200              	.LCFI54:
 1201              	 .cfi_def_cfa_register 13
 1202              	 
 1203 016c 80BD     	 pop {r7,pc}
 1204              	.L70:
 1205 016e 00BF     	 .align 2
 1206              	.L69:
 1207 0170 00000000 	 .word AUTOMATION_PH_Parameter_Buf
 1208 0174 00000000 	 .word AUTOMATION_PH_Param_Table
 1209 0178 00000000 	 .word AUTOMATION_App_Table
 1210 017c 03000180 	 .word -2147418109
 1211              	 .cfi_endproc
 1212              	.LFE144:
 1214              	 .section .text.AUTOMATION_EH_BitInterface_RegisterErrors,"ax",%progbits
 1215              	 .align 2
 1216              	 .global AUTOMATION_EH_BitInterface_RegisterErrors
 1217              	 .thumb
 1218              	 .thumb_func
 1220              	AUTOMATION_EH_BitInterface_RegisterErrors:
 1221              	.LFB145:
 420:../Dave/Generated/AUTOMATION/automation.c **** 
 421:../Dave/Generated/AUTOMATION/automation.c **** #endif
 422:../Dave/Generated/AUTOMATION/automation.c **** 
 423:../Dave/Generated/AUTOMATION/automation.c **** 
 424:../Dave/Generated/AUTOMATION/automation.c **** #if (AUTOMATION_EH_ENABLE == 1U)
 425:../Dave/Generated/AUTOMATION/automation.c **** /**
 426:../Dave/Generated/AUTOMATION/automation.c ****  * This function will register bit interface errors in Automation framework.
 427:../Dave/Generated/AUTOMATION/automation.c ****  */
 428:../Dave/Generated/AUTOMATION/automation.c **** AUTOMATION_STATUS_t AUTOMATION_EH_BitInterface_RegisterErrors (uint8_t interface_id, uint8_t positi
 429:../Dave/Generated/AUTOMATION/automation.c ****     AUTOMATION_EH_BIT_ERROR_TABLE_t * const error)
 430:../Dave/Generated/AUTOMATION/automation.c **** {
 1222              	 .loc 1 430 0
 1223              	 .cfi_startproc
 1224              	 
 1225              	 
 1226              	 
 1227 0000 80B4     	 push {r7}
 1228              	.LCFI55:
 1229              	 .cfi_def_cfa_offset 4
 1230              	 .cfi_offset 7,-4
 1231 0002 85B0     	 sub sp,sp,#20
 1232              	.LCFI56:
 1233              	 .cfi_def_cfa_offset 24
 1234 0004 00AF     	 add r7,sp,#0
 1235              	.LCFI57:
 1236              	 .cfi_def_cfa_register 7
 1237 0006 0346     	 mov r3,r0
 1238 0008 3A60     	 str r2,[r7]
 1239 000a FB71     	 strb r3,[r7,#7]
 1240 000c 0B46     	 mov r3,r1
 1241 000e BB71     	 strb r3,[r7,#6]
 431:../Dave/Generated/AUTOMATION/automation.c ****   AUTOMATION_STATUS_t status;
 432:../Dave/Generated/AUTOMATION/automation.c ****   AUTOMATION_EH_BIT_ERROR_TABLE_t *error_entry;
 433:../Dave/Generated/AUTOMATION/automation.c ****   /* Check if interface ID is valid */
 434:../Dave/Generated/AUTOMATION/automation.c ****   if (interface_id < AUTOMATION_NUM_INTERFACES)
 1242              	 .loc 1 434 0
 1243 0010 FB79     	 ldrb r3,[r7,#7]
 1244 0012 002B     	 cmp r3,#0
 1245 0014 21D1     	 bne .L72
 435:../Dave/Generated/AUTOMATION/automation.c ****   {
 436:../Dave/Generated/AUTOMATION/automation.c ****     /* Register callback function for bit interface error */
 437:../Dave/Generated/AUTOMATION/automation.c ****     error_entry = &AUTOMATION_EH_BitErrorTable[interface_id][position];
 1246              	 .loc 1 437 0
 1247 0016 F979     	 ldrb r1,[r7,#7]
 1248 0018 BB79     	 ldrb r3,[r7,#6]
 1249 001a 1A46     	 mov r2,r3
 1250 001c 5200     	 lsls r2,r2,#1
 1251 001e 1A44     	 add r2,r2,r3
 1252 0020 9300     	 lsls r3,r2,#2
 1253 0022 1A46     	 mov r2,r3
 1254 0024 0B46     	 mov r3,r1
 1255 0026 5B00     	 lsls r3,r3,#1
 1256 0028 0B44     	 add r3,r3,r1
 1257 002a DB01     	 lsls r3,r3,#7
 1258 002c 1344     	 add r3,r3,r2
 1259 002e 0F4A     	 ldr r2,.L75
 1260 0030 1344     	 add r3,r3,r2
 1261 0032 BB60     	 str r3,[r7,#8]
 438:../Dave/Generated/AUTOMATION/automation.c ****     error_entry->error_functptr = error->error_functptr;
 1262              	 .loc 1 438 0
 1263 0034 3B68     	 ldr r3,[r7]
 1264 0036 1A68     	 ldr r2,[r3]
 1265 0038 BB68     	 ldr r3,[r7,#8]
 1266 003a 1A60     	 str r2,[r3]
 439:../Dave/Generated/AUTOMATION/automation.c ****     error_entry->error_callbackarg = error->error_callbackarg;
 1267              	 .loc 1 439 0
 1268 003c 3B68     	 ldr r3,[r7]
 1269 003e 5A68     	 ldr r2,[r3,#4]
 1270 0040 BB68     	 ldr r3,[r7,#8]
 1271 0042 5A60     	 str r2,[r3,#4]
 440:../Dave/Generated/AUTOMATION/automation.c ****     error_entry->error_severity = error->error_severity;
 1272              	 .loc 1 440 0
 1273 0044 3B68     	 ldr r3,[r7]
 1274 0046 9A7A     	 ldrb r2,[r3,#10]
 1275 0048 BB68     	 ldr r3,[r7,#8]
 1276 004a 9A72     	 strb r2,[r3,#10]
 441:../Dave/Generated/AUTOMATION/automation.c ****     error_entry->error_id = error->error_id;
 1277              	 .loc 1 441 0
 1278 004c 3B68     	 ldr r3,[r7]
 1279 004e 1A7A     	 ldrb r2,[r3,#8]
 1280 0050 BB68     	 ldr r3,[r7,#8]
 1281 0052 1A72     	 strb r2,[r3,#8]
 442:../Dave/Generated/AUTOMATION/automation.c ****     status = AUTOMATION_STATUS_SUCCESS;
 1282              	 .loc 1 442 0
 1283 0054 0023     	 movs r3,#0
 1284 0056 FB73     	 strb r3,[r7,#15]
 1285 0058 01E0     	 b .L73
 1286              	.L72:
 443:../Dave/Generated/AUTOMATION/automation.c ****   }
 444:../Dave/Generated/AUTOMATION/automation.c ****   else
 445:../Dave/Generated/AUTOMATION/automation.c ****   {
 446:../Dave/Generated/AUTOMATION/automation.c ****     /* Registration fails due to no space in error table */
 447:../Dave/Generated/AUTOMATION/automation.c ****     status = AUTOMATION_STATUS_INVALID_INTERFACE_ID;
 1287              	 .loc 1 447 0
 1288 005a 0C23     	 movs r3,#12
 1289 005c FB73     	 strb r3,[r7,#15]
 1290              	.L73:
 448:../Dave/Generated/AUTOMATION/automation.c ****   }
 449:../Dave/Generated/AUTOMATION/automation.c **** 
 450:../Dave/Generated/AUTOMATION/automation.c ****   return status;
 1291              	 .loc 1 450 0
 1292 005e FB7B     	 ldrb r3,[r7,#15]
 451:../Dave/Generated/AUTOMATION/automation.c **** }
 1293              	 .loc 1 451 0
 1294 0060 1846     	 mov r0,r3
 1295 0062 1437     	 adds r7,r7,#20
 1296              	.LCFI58:
 1297              	 .cfi_def_cfa_offset 4
 1298 0064 BD46     	 mov sp,r7
 1299              	.LCFI59:
 1300              	 .cfi_def_cfa_register 13
 1301              	 
 1302 0066 5DF8047B 	 ldr r7,[sp],#4
 1303              	.LCFI60:
 1304              	 .cfi_restore 7
 1305              	 .cfi_def_cfa_offset 0
 1306 006a 7047     	 bx lr
 1307              	.L76:
 1308              	 .align 2
 1309              	.L75:
 1310 006c 00000000 	 .word AUTOMATION_EH_BitErrorTable
 1311              	 .cfi_endproc
 1312              	.LFE145:
 1314              	 .section .text.AUTOMATION_EH_RegisterInterfaceCallback,"ax",%progbits
 1315              	 .align 2
 1316              	 .global AUTOMATION_EH_RegisterInterfaceCallback
 1317              	 .thumb
 1318              	 .thumb_func
 1320              	AUTOMATION_EH_RegisterInterfaceCallback:
 1321              	.LFB146:
 452:../Dave/Generated/AUTOMATION/automation.c **** 
 453:../Dave/Generated/AUTOMATION/automation.c **** /**
 454:../Dave/Generated/AUTOMATION/automation.c ****  * This function will register the callback function which will be called when error status is chan
 455:../Dave/Generated/AUTOMATION/automation.c ****  */
 456:../Dave/Generated/AUTOMATION/automation.c **** AUTOMATION_STATUS_t AUTOMATION_EH_RegisterInterfaceCallback(uint8_t interface_id, AUTOMATION_EH_REP
 457:../Dave/Generated/AUTOMATION/automation.c **** {
 1322              	 .loc 1 457 0
 1323              	 .cfi_startproc
 1324              	 
 1325              	 
 1326              	 
 1327 0000 80B4     	 push {r7}
 1328              	.LCFI61:
 1329              	 .cfi_def_cfa_offset 4
 1330              	 .cfi_offset 7,-4
 1331 0002 85B0     	 sub sp,sp,#20
 1332              	.LCFI62:
 1333              	 .cfi_def_cfa_offset 24
 1334 0004 00AF     	 add r7,sp,#0
 1335              	.LCFI63:
 1336              	 .cfi_def_cfa_register 7
 1337 0006 0346     	 mov r3,r0
 1338 0008 3960     	 str r1,[r7]
 1339 000a FB71     	 strb r3,[r7,#7]
 458:../Dave/Generated/AUTOMATION/automation.c ****   AUTOMATION_STATUS_t status = AUTOMATION_STATUS_SUCCESS;
 1340              	 .loc 1 458 0
 1341 000c 0023     	 movs r3,#0
 1342 000e FB73     	 strb r3,[r7,#15]
 459:../Dave/Generated/AUTOMATION/automation.c ****   if (interface_id < AUTOMATION_NUM_INTERFACES)
 1343              	 .loc 1 459 0
 1344 0010 FB79     	 ldrb r3,[r7,#7]
 1345 0012 002B     	 cmp r3,#0
 1346 0014 06D1     	 bne .L78
 460:../Dave/Generated/AUTOMATION/automation.c ****   {
 461:../Dave/Generated/AUTOMATION/automation.c ****     AUTOMATION_EH_ReportingInterface.eh_error_report_interface_id = interface_id;
 1347              	 .loc 1 461 0
 1348 0016 084A     	 ldr r2,.L81
 1349 0018 FB79     	 ldrb r3,[r7,#7]
 1350 001a 1370     	 strb r3,[r2]
 462:../Dave/Generated/AUTOMATION/automation.c ****     AUTOMATION_EH_ReportingInterface.eh_report_callback_ptr = callback_ptr;
 1351              	 .loc 1 462 0
 1352 001c 064A     	 ldr r2,.L81
 1353 001e 3B68     	 ldr r3,[r7]
 1354 0020 5360     	 str r3,[r2,#4]
 1355 0022 01E0     	 b .L79
 1356              	.L78:
 463:../Dave/Generated/AUTOMATION/automation.c ****   }
 464:../Dave/Generated/AUTOMATION/automation.c ****   else
 465:../Dave/Generated/AUTOMATION/automation.c ****   {
 466:../Dave/Generated/AUTOMATION/automation.c ****     /* Registration fails due to no space in error table */
 467:../Dave/Generated/AUTOMATION/automation.c ****     status = AUTOMATION_STATUS_INVALID_INTERFACE_ID;
 1357              	 .loc 1 467 0
 1358 0024 0C23     	 movs r3,#12
 1359 0026 FB73     	 strb r3,[r7,#15]
 1360              	.L79:
 468:../Dave/Generated/AUTOMATION/automation.c ****   }
 469:../Dave/Generated/AUTOMATION/automation.c ****   return (status);
 1361              	 .loc 1 469 0
 1362 0028 FB7B     	 ldrb r3,[r7,#15]
 470:../Dave/Generated/AUTOMATION/automation.c **** }
 1363              	 .loc 1 470 0
 1364 002a 1846     	 mov r0,r3
 1365 002c 1437     	 adds r7,r7,#20
 1366              	.LCFI64:
 1367              	 .cfi_def_cfa_offset 4
 1368 002e BD46     	 mov sp,r7
 1369              	.LCFI65:
 1370              	 .cfi_def_cfa_register 13
 1371              	 
 1372 0030 5DF8047B 	 ldr r7,[sp],#4
 1373              	.LCFI66:
 1374              	 .cfi_restore 7
 1375              	 .cfi_def_cfa_offset 0
 1376 0034 7047     	 bx lr
 1377              	.L82:
 1378 0036 00BF     	 .align 2
 1379              	.L81:
 1380 0038 00000000 	 .word AUTOMATION_EH_ReportingInterface
 1381              	 .cfi_endproc
 1382              	.LFE146:
 1384              	 .section .text.AUTOMATION_AppInterface_ReadReportedErrors,"ax",%progbits
 1385              	 .align 2
 1386              	 .thumb
 1387              	 .thumb_func
 1389              	AUTOMATION_AppInterface_ReadReportedErrors:
 1390              	.LFB147:
 471:../Dave/Generated/AUTOMATION/automation.c **** 
 472:../Dave/Generated/AUTOMATION/automation.c **** /* Read errors reported by App from temporary buffer and log it in log book and send through commun
 473:../Dave/Generated/AUTOMATION/automation.c **** static void AUTOMATION_AppInterface_ReadReportedErrors(void)
 474:../Dave/Generated/AUTOMATION/automation.c **** {
 1391              	 .loc 1 474 0
 1392              	 .cfi_startproc
 1393              	 
 1394              	 
 1395 0000 90B5     	 push {r4,r7,lr}
 1396              	.LCFI67:
 1397              	 .cfi_def_cfa_offset 12
 1398              	 .cfi_offset 4,-12
 1399              	 .cfi_offset 7,-8
 1400              	 .cfi_offset 14,-4
 1401 0002 83B0     	 sub sp,sp,#12
 1402              	.LCFI68:
 1403              	 .cfi_def_cfa_offset 24
 1404 0004 00AF     	 add r7,sp,#0
 1405              	.LCFI69:
 1406              	 .cfi_def_cfa_register 7
 475:../Dave/Generated/AUTOMATION/automation.c ****   uint8_t temp_buf_index;
 476:../Dave/Generated/AUTOMATION/automation.c ****   AUTOMATION_EH_LOGBOOK_ENTRY_t * temp_logbook_entry;
 477:../Dave/Generated/AUTOMATION/automation.c ****   for (temp_buf_index = 0U; temp_buf_index < AUTOMATION_EH_AppErrorBuf.data_length; temp_buf_index+
 1407              	 .loc 1 477 0
 1408 0006 0023     	 movs r3,#0
 1409 0008 FB71     	 strb r3,[r7,#7]
 1410 000a 2EE0     	 b .L84
 1411              	.L87:
 478:../Dave/Generated/AUTOMATION/automation.c ****   {
 479:../Dave/Generated/AUTOMATION/automation.c ****     /* Read request for error log book Info/Warning section */
 480:../Dave/Generated/AUTOMATION/automation.c ****     temp_logbook_entry = &AUTOMATION_EH_AppErrorBuf.error_logbook_ptr[AUTOMATION_EH_AppErrorBuf.rea
 1412              	 .loc 1 480 0
 1413 000c 1B4B     	 ldr r3,.L88
 1414 000e 5A68     	 ldr r2,[r3,#4]
 1415 0010 1A4B     	 ldr r3,.L88
 1416 0012 1B78     	 ldrb r3,[r3]
 1417 0014 591C     	 adds r1,r3,#1
 1418 0016 C8B2     	 uxtb r0,r1
 1419 0018 1849     	 ldr r1,.L88
 1420 001a 0870     	 strb r0,[r1]
 1421 001c DB00     	 lsls r3,r3,#3
 1422 001e 1344     	 add r3,r3,r2
 1423 0020 3B60     	 str r3,[r7]
 481:../Dave/Generated/AUTOMATION/automation.c ****     if (AUTOMATION_EH_AppErrorBuf.read_index == AUTOMATION_EH_APPBUF_SIZE)
 1424              	 .loc 1 481 0
 1425 0022 164B     	 ldr r3,.L88
 1426 0024 1B78     	 ldrb r3,[r3]
 1427 0026 052B     	 cmp r3,#5
 1428 0028 02D1     	 bne .L85
 482:../Dave/Generated/AUTOMATION/automation.c ****     {
 483:../Dave/Generated/AUTOMATION/automation.c ****       /* Ring buffer */
 484:../Dave/Generated/AUTOMATION/automation.c ****       AUTOMATION_EH_AppErrorBuf.read_index = 0U;
 1429              	 .loc 1 484 0
 1430 002a 144B     	 ldr r3,.L88
 1431 002c 0022     	 movs r2,#0
 1432 002e 1A70     	 strb r2,[r3]
 1433              	.L85:
 485:../Dave/Generated/AUTOMATION/automation.c ****     }
 486:../Dave/Generated/AUTOMATION/automation.c ****     AUTOMATION_EH_AppErrorBuf.data_length--;
 1434              	 .loc 1 486 0
 1435 0030 124B     	 ldr r3,.L88
 1436 0032 9B78     	 ldrb r3,[r3,#2]
 1437 0034 013B     	 subs r3,r3,#1
 1438 0036 DAB2     	 uxtb r2,r3
 1439 0038 104B     	 ldr r3,.L88
 1440 003a 9A70     	 strb r2,[r3,#2]
 487:../Dave/Generated/AUTOMATION/automation.c **** 
 488:../Dave/Generated/AUTOMATION/automation.c ****     /* record to log book */
 489:../Dave/Generated/AUTOMATION/automation.c ****     AUTOMATION_EH_WriteLogbook(*temp_logbook_entry);
 1441              	 .loc 1 489 0
 1442 003c 3B68     	 ldr r3,[r7]
 1443 003e 93E80300 	 ldmia r3,{r0,r1}
 1444 0042 FFF7FEFF 	 bl AUTOMATION_EH_WriteLogbook
 490:../Dave/Generated/AUTOMATION/automation.c **** 
 491:../Dave/Generated/AUTOMATION/automation.c ****     if (AUTOMATION_EH_ReportingInterface.eh_report_callback_ptr != NULL)
 1445              	 .loc 1 491 0
 1446 0046 0E4B     	 ldr r3,.L88+4
 1447 0048 5B68     	 ldr r3,[r3,#4]
 1448 004a 002B     	 cmp r3,#0
 1449 004c 0AD0     	 beq .L86
 492:../Dave/Generated/AUTOMATION/automation.c ****     {
 493:../Dave/Generated/AUTOMATION/automation.c ****       /* Report on communication interface */
 494:../Dave/Generated/AUTOMATION/automation.c ****       AUTOMATION_EH_ReportingInterface.eh_report_callback_ptr
 1450              	 .loc 1 494 0
 1451 004e 0C4B     	 ldr r3,.L88+4
 1452 0050 5C68     	 ldr r4,[r3,#4]
 1453 0052 3B68     	 ldr r3,[r7]
 1454 0054 1879     	 ldrb r0,[r3,#4]
 1455 0056 3B68     	 ldr r3,[r7]
 1456 0058 5979     	 ldrb r1,[r3,#5]
 1457 005a 3B68     	 ldr r3,[r7]
 1458 005c 9A79     	 ldrb r2,[r3,#6]
 1459 005e 3B68     	 ldr r3,[r7]
 1460 0060 DB79     	 ldrb r3,[r3,#7]
 1461 0062 A047     	 blx r4
 1462              	.L86:
 477:../Dave/Generated/AUTOMATION/automation.c ****   {
 1463              	 .loc 1 477 0 discriminator 2
 1464 0064 FB79     	 ldrb r3,[r7,#7]
 1465 0066 0133     	 adds r3,r3,#1
 1466 0068 FB71     	 strb r3,[r7,#7]
 1467              	.L84:
 477:../Dave/Generated/AUTOMATION/automation.c ****   {
 1468              	 .loc 1 477 0 is_stmt 0 discriminator 1
 1469 006a 044B     	 ldr r3,.L88
 1470 006c 9B78     	 ldrb r3,[r3,#2]
 1471 006e FA79     	 ldrb r2,[r7,#7]
 1472 0070 9A42     	 cmp r2,r3
 1473 0072 CBD3     	 bcc .L87
 495:../Dave/Generated/AUTOMATION/automation.c ****       (temp_logbook_entry->app_id,
 496:../Dave/Generated/AUTOMATION/automation.c ****           temp_logbook_entry->error_id,
 497:../Dave/Generated/AUTOMATION/automation.c ****           temp_logbook_entry->error_severity,
 498:../Dave/Generated/AUTOMATION/automation.c ****           temp_logbook_entry->error_status);
 499:../Dave/Generated/AUTOMATION/automation.c ****     }
 500:../Dave/Generated/AUTOMATION/automation.c ****   }
 501:../Dave/Generated/AUTOMATION/automation.c **** }
 1474              	 .loc 1 501 0 is_stmt 1
 1475 0074 0C37     	 adds r7,r7,#12
 1476              	.LCFI70:
 1477              	 .cfi_def_cfa_offset 12
 1478 0076 BD46     	 mov sp,r7
 1479              	.LCFI71:
 1480              	 .cfi_def_cfa_register 13
 1481              	 
 1482 0078 90BD     	 pop {r4,r7,pc}
 1483              	.L89:
 1484 007a 00BF     	 .align 2
 1485              	.L88:
 1486 007c 00000000 	 .word AUTOMATION_EH_AppErrorBuf
 1487 0080 00000000 	 .word AUTOMATION_EH_ReportingInterface
 1488              	 .cfi_endproc
 1489              	.LFE147:
 1491              	 .section .text.AUTOMATION_EH_ProcessError,"ax",%progbits
 1492              	 .align 2
 1493              	 .thumb
 1494              	 .thumb_func
 1496              	AUTOMATION_EH_ProcessError:
 1497              	.LFB148:
 502:../Dave/Generated/AUTOMATION/automation.c **** 
 503:../Dave/Generated/AUTOMATION/automation.c **** static void AUTOMATION_EH_ProcessError(AUTOMATION_EH_BIT_ERROR_TABLE_t* const error_table_entry_ptr
 504:../Dave/Generated/AUTOMATION/automation.c **** {
 1498              	 .loc 1 504 0
 1499              	 .cfi_startproc
 1500              	 
 1501              	 
 1502 0000 90B5     	 push {r4,r7,lr}
 1503              	.LCFI72:
 1504              	 .cfi_def_cfa_offset 12
 1505              	 .cfi_offset 4,-12
 1506              	 .cfi_offset 7,-8
 1507              	 .cfi_offset 14,-4
 1508 0002 83B0     	 sub sp,sp,#12
 1509              	.LCFI73:
 1510              	 .cfi_def_cfa_offset 24
 1511 0004 00AF     	 add r7,sp,#0
 1512              	.LCFI74:
 1513              	 .cfi_def_cfa_register 7
 1514 0006 7860     	 str r0,[r7,#4]
 505:../Dave/Generated/AUTOMATION/automation.c ****   if (AUTOMATION_EH_ReportingInterface.eh_report_callback_ptr != NULL)
 1515              	 .loc 1 505 0
 1516 0008 0D4B     	 ldr r3,.L93
 1517 000a 5B68     	 ldr r3,[r3,#4]
 1518 000c 002B     	 cmp r3,#0
 1519 000e 0AD0     	 beq .L91
 506:../Dave/Generated/AUTOMATION/automation.c ****   {
 507:../Dave/Generated/AUTOMATION/automation.c ****     /* Report error on interface */
 508:../Dave/Generated/AUTOMATION/automation.c ****     AUTOMATION_EH_ReportingInterface.eh_report_callback_ptr
 1520              	 .loc 1 508 0
 1521 0010 0B4B     	 ldr r3,.L93
 1522 0012 5C68     	 ldr r4,[r3,#4]
 1523 0014 7B68     	 ldr r3,[r7,#4]
 1524 0016 1A7A     	 ldrb r2,[r3,#8]
 1525 0018 7B68     	 ldr r3,[r7,#4]
 1526 001a 9B7A     	 ldrb r3,[r3,#10]
 1527 001c FF20     	 movs r0,#255
 1528 001e 1146     	 mov r1,r2
 1529 0020 1A46     	 mov r2,r3
 1530 0022 0123     	 movs r3,#1
 1531 0024 A047     	 blx r4
 1532              	.L91:
 509:../Dave/Generated/AUTOMATION/automation.c ****     ((uint8_t)AUTOMATION_EH_BIT_INTERFACE_ID,
 510:../Dave/Generated/AUTOMATION/automation.c ****         error_table_entry_ptr->error_id,
 511:../Dave/Generated/AUTOMATION/automation.c ****         error_table_entry_ptr->error_severity,
 512:../Dave/Generated/AUTOMATION/automation.c ****         (uint8_t)AUTOMATION_EH_ERROR_STATUS_SET);
 513:../Dave/Generated/AUTOMATION/automation.c ****   }
 514:../Dave/Generated/AUTOMATION/automation.c **** 
 515:../Dave/Generated/AUTOMATION/automation.c ****   if (error_table_entry_ptr->error_functptr != NULL)
 1533              	 .loc 1 515 0
 1534 0026 7B68     	 ldr r3,[r7,#4]
 1535 0028 1B68     	 ldr r3,[r3]
 1536 002a 002B     	 cmp r3,#0
 1537 002c 05D0     	 beq .L90
 516:../Dave/Generated/AUTOMATION/automation.c ****   {
 517:../Dave/Generated/AUTOMATION/automation.c ****     /* Call registered call back function */
 518:../Dave/Generated/AUTOMATION/automation.c ****     (error_table_entry_ptr->error_functptr)(error_table_entry_ptr->error_callbackarg);
 1538              	 .loc 1 518 0
 1539 002e 7B68     	 ldr r3,[r7,#4]
 1540 0030 1B68     	 ldr r3,[r3]
 1541 0032 7A68     	 ldr r2,[r7,#4]
 1542 0034 5268     	 ldr r2,[r2,#4]
 1543 0036 1046     	 mov r0,r2
 1544 0038 9847     	 blx r3
 1545              	.L90:
 519:../Dave/Generated/AUTOMATION/automation.c ****   }
 520:../Dave/Generated/AUTOMATION/automation.c **** 
 521:../Dave/Generated/AUTOMATION/automation.c **** }
 1546              	 .loc 1 521 0
 1547 003a 0C37     	 adds r7,r7,#12
 1548              	.LCFI75:
 1549              	 .cfi_def_cfa_offset 12
 1550 003c BD46     	 mov sp,r7
 1551              	.LCFI76:
 1552              	 .cfi_def_cfa_register 13
 1553              	 
 1554 003e 90BD     	 pop {r4,r7,pc}
 1555              	.L94:
 1556              	 .align 2
 1557              	.L93:
 1558 0040 00000000 	 .word AUTOMATION_EH_ReportingInterface
 1559              	 .cfi_endproc
 1560              	.LFE148:
 1562              	 .section .text.AUTOMATION_EH_ErrorSequencer,"ax",%progbits
 1563              	 .align 2
 1564              	 .global AUTOMATION_EH_ErrorSequencer
 1565              	 .thumb
 1566              	 .thumb_func
 1568              	AUTOMATION_EH_ErrorSequencer:
 1569              	.LFB149:
 522:../Dave/Generated/AUTOMATION/automation.c **** 
 523:../Dave/Generated/AUTOMATION/automation.c **** /**
 524:../Dave/Generated/AUTOMATION/automation.c ****  * This function will scan errors from the BitInterface Word and take action.
 525:../Dave/Generated/AUTOMATION/automation.c ****  */
 526:../Dave/Generated/AUTOMATION/automation.c **** void AUTOMATION_EH_ErrorSequencer (void)
 527:../Dave/Generated/AUTOMATION/automation.c **** {
 1570              	 .loc 1 527 0
 1571              	 .cfi_startproc
 1572              	 
 1573              	 
 1574 0000 90B5     	 push {r4,r7,lr}
 1575              	.LCFI77:
 1576              	 .cfi_def_cfa_offset 12
 1577              	 .cfi_offset 4,-12
 1578              	 .cfi_offset 7,-8
 1579              	 .cfi_offset 14,-4
 1580 0002 85B0     	 sub sp,sp,#20
 1581              	.LCFI78:
 1582              	 .cfi_def_cfa_offset 32
 1583 0004 00AF     	 add r7,sp,#0
 1584              	.LCFI79:
 1585              	 .cfi_def_cfa_register 7
 528:../Dave/Generated/AUTOMATION/automation.c ****   uint8_t error_words_count,bit_count;
 529:../Dave/Generated/AUTOMATION/automation.c ****   AUTOMATION_EH_BIT_ERROR_TABLE_t *error_table_entry_ptr;
 530:../Dave/Generated/AUTOMATION/automation.c ****   AUTOMATION_EH_LOGBOOK_ENTRY_t logbook_entry;
 531:../Dave/Generated/AUTOMATION/automation.c **** 
 532:../Dave/Generated/AUTOMATION/automation.c ****   /* Loop to scan all registered bit interface error words */
 533:../Dave/Generated/AUTOMATION/automation.c ****   for(error_words_count=0U; error_words_count < AUTOMATION_NUM_INTERFACES; error_words_count++)
 1586              	 .loc 1 533 0
 1587 0006 0023     	 movs r3,#0
 1588 0008 FB73     	 strb r3,[r7,#15]
 1589 000a AEE0     	 b .L96
 1590              	.L108:
 534:../Dave/Generated/AUTOMATION/automation.c ****   {
 535:../Dave/Generated/AUTOMATION/automation.c ****     if ((AUTOMATION_EH_BitInterface_Word[error_words_count].error_word != 0U) ||
 1591              	 .loc 1 535 0
 1592 000c FB7B     	 ldrb r3,[r7,#15]
 1593 000e 5B4A     	 ldr r2,.L109
 1594 0010 52F83330 	 ldr r3,[r2,r3,lsl#3]
 1595 0014 002B     	 cmp r3,#0
 1596 0016 07D1     	 bne .L97
 536:../Dave/Generated/AUTOMATION/automation.c ****         (AUTOMATION_EH_BitInterface_Word[error_words_count].status_word != 0U))
 1597              	 .loc 1 536 0 discriminator 1
 1598 0018 FB7B     	 ldrb r3,[r7,#15]
 1599 001a 584A     	 ldr r2,.L109
 1600 001c DB00     	 lsls r3,r3,#3
 1601 001e 1344     	 add r3,r3,r2
 1602 0020 5B68     	 ldr r3,[r3,#4]
 535:../Dave/Generated/AUTOMATION/automation.c ****         (AUTOMATION_EH_BitInterface_Word[error_words_count].status_word != 0U))
 1603              	 .loc 1 535 0 discriminator 1
 1604 0022 002B     	 cmp r3,#0
 1605 0024 00F09E80 	 beq .L98
 1606              	.L97:
 537:../Dave/Generated/AUTOMATION/automation.c ****     {
 538:../Dave/Generated/AUTOMATION/automation.c ****       /* Loop to scan all registered bits insider error word */
 539:../Dave/Generated/AUTOMATION/automation.c ****       for(bit_count = 0U; bit_count < 32U; bit_count++)
 1607              	 .loc 1 539 0
 1608 0028 0023     	 movs r3,#0
 1609 002a BB73     	 strb r3,[r7,#14]
 1610 002c 96E0     	 b .L99
 1611              	.L107:
 540:../Dave/Generated/AUTOMATION/automation.c ****       {
 541:../Dave/Generated/AUTOMATION/automation.c ****         /* Check if any error bit is set */
 542:../Dave/Generated/AUTOMATION/automation.c ****         if ((AUTOMATION_EH_BitInterface_Word[error_words_count].error_word>>bit_count) & 1U)
 1612              	 .loc 1 542 0
 1613 002e FB7B     	 ldrb r3,[r7,#15]
 1614 0030 524A     	 ldr r2,.L109
 1615 0032 52F83320 	 ldr r2,[r2,r3,lsl#3]
 1616 0036 BB7B     	 ldrb r3,[r7,#14]
 1617 0038 22FA03F3 	 lsr r3,r2,r3
 1618 003c 03F00103 	 and r3,r3,#1
 1619 0040 002B     	 cmp r3,#0
 1620 0042 34D0     	 beq .L100
 543:../Dave/Generated/AUTOMATION/automation.c ****         {
 544:../Dave/Generated/AUTOMATION/automation.c ****           /* Error bit is set */
 545:../Dave/Generated/AUTOMATION/automation.c ****           /* Check if any action is already taken */
 546:../Dave/Generated/AUTOMATION/automation.c ****           if ((AUTOMATION_EH_BitInterface_Word[error_words_count].status_word>>bit_count) & 1U)
 1621              	 .loc 1 546 0
 1622 0044 FB7B     	 ldrb r3,[r7,#15]
 1623 0046 4D4A     	 ldr r2,.L109
 1624 0048 DB00     	 lsls r3,r3,#3
 1625 004a 1344     	 add r3,r3,r2
 1626 004c 5A68     	 ldr r2,[r3,#4]
 1627 004e BB7B     	 ldrb r3,[r7,#14]
 1628 0050 22FA03F3 	 lsr r3,r2,r3
 1629 0054 03F00103 	 and r3,r3,#1
 1630 0058 002B     	 cmp r3,#0
 1631 005a 02D0     	 beq .L101
 547:../Dave/Generated/AUTOMATION/automation.c ****           {
 548:../Dave/Generated/AUTOMATION/automation.c ****             /* Action is already taken */
 549:../Dave/Generated/AUTOMATION/automation.c ****             error_table_entry_ptr = NULL;
 1632              	 .loc 1 549 0
 1633 005c 0023     	 movs r3,#0
 1634 005e BB60     	 str r3,[r7,#8]
 1635 0060 65E0     	 b .L103
 1636              	.L101:
 550:../Dave/Generated/AUTOMATION/automation.c ****           }
 551:../Dave/Generated/AUTOMATION/automation.c ****           else
 552:../Dave/Generated/AUTOMATION/automation.c ****           {
 553:../Dave/Generated/AUTOMATION/automation.c ****             /* Action need to take */
 554:../Dave/Generated/AUTOMATION/automation.c ****             error_table_entry_ptr = &AUTOMATION_EH_BitErrorTable[error_words_count][bit_count];
 1637              	 .loc 1 554 0
 1638 0062 F97B     	 ldrb r1,[r7,#15]
 1639 0064 BB7B     	 ldrb r3,[r7,#14]
 1640 0066 1A46     	 mov r2,r3
 1641 0068 5200     	 lsls r2,r2,#1
 1642 006a 1A44     	 add r2,r2,r3
 1643 006c 9300     	 lsls r3,r2,#2
 1644 006e 1A46     	 mov r2,r3
 1645 0070 0B46     	 mov r3,r1
 1646 0072 5B00     	 lsls r3,r3,#1
 1647 0074 0B44     	 add r3,r3,r1
 1648 0076 DB01     	 lsls r3,r3,#7
 1649 0078 1344     	 add r3,r3,r2
 1650 007a 414A     	 ldr r2,.L109+4
 1651 007c 1344     	 add r3,r3,r2
 1652 007e BB60     	 str r3,[r7,#8]
 555:../Dave/Generated/AUTOMATION/automation.c ****             AUTOMATION_EH_ProcessError(error_table_entry_ptr);
 1653              	 .loc 1 555 0
 1654 0080 B868     	 ldr r0,[r7,#8]
 1655 0082 FFF7FEFF 	 bl AUTOMATION_EH_ProcessError
 556:../Dave/Generated/AUTOMATION/automation.c ****             /* Set corresponding bit in status word to indicate action is taken */
 557:../Dave/Generated/AUTOMATION/automation.c ****             AUTOMATION_EH_BitInterface_Word[error_words_count].status_word =
 1656              	 .loc 1 557 0
 1657 0086 FC7B     	 ldrb r4,[r7,#15]
 558:../Dave/Generated/AUTOMATION/automation.c ****             AUTOMATION_WriteBit(AUTOMATION_EH_BitInterface_Word[error_words_count].status_word, bit
 1658              	 .loc 1 558 0
 1659 0088 FB7B     	 ldrb r3,[r7,#15]
 1660 008a 3C4A     	 ldr r2,.L109
 1661 008c DB00     	 lsls r3,r3,#3
 1662 008e 1344     	 add r3,r3,r2
 1663 0090 5A68     	 ldr r2,[r3,#4]
 1664 0092 BB7B     	 ldrb r3,[r7,#14]
 1665 0094 1046     	 mov r0,r2
 1666 0096 1946     	 mov r1,r3
 1667 0098 0122     	 movs r2,#1
 1668 009a FFF7FEFF 	 bl AUTOMATION_WriteBit
 1669 009e 0146     	 mov r1,r0
 557:../Dave/Generated/AUTOMATION/automation.c ****             AUTOMATION_WriteBit(AUTOMATION_EH_BitInterface_Word[error_words_count].status_word, bit
 1670              	 .loc 1 557 0
 1671 00a0 364A     	 ldr r2,.L109
 1672 00a2 E300     	 lsls r3,r4,#3
 1673 00a4 1344     	 add r3,r3,r2
 1674 00a6 5960     	 str r1,[r3,#4]
 559:../Dave/Generated/AUTOMATION/automation.c **** 
 560:../Dave/Generated/AUTOMATION/automation.c ****             /* Record in log book */
 561:../Dave/Generated/AUTOMATION/automation.c ****             logbook_entry.error_status = (uint8_t)AUTOMATION_EH_ERROR_STATUS_SET;
 1675              	 .loc 1 561 0
 1676 00a8 0123     	 movs r3,#1
 1677 00aa FB71     	 strb r3,[r7,#7]
 1678 00ac 3FE0     	 b .L103
 1679              	.L100:
 562:../Dave/Generated/AUTOMATION/automation.c ****           }
 563:../Dave/Generated/AUTOMATION/automation.c ****         }
 564:../Dave/Generated/AUTOMATION/automation.c ****         else
 565:../Dave/Generated/AUTOMATION/automation.c ****         {
 566:../Dave/Generated/AUTOMATION/automation.c ****           /* Error bit reseted */
 567:../Dave/Generated/AUTOMATION/automation.c ****           /* Check if status bit still set then reset it */
 568:../Dave/Generated/AUTOMATION/automation.c ****           if ((AUTOMATION_EH_BitInterface_Word[error_words_count].status_word>>bit_count) & 1U)
 1680              	 .loc 1 568 0
 1681 00ae FB7B     	 ldrb r3,[r7,#15]
 1682 00b0 324A     	 ldr r2,.L109
 1683 00b2 DB00     	 lsls r3,r3,#3
 1684 00b4 1344     	 add r3,r3,r2
 1685 00b6 5A68     	 ldr r2,[r3,#4]
 1686 00b8 BB7B     	 ldrb r3,[r7,#14]
 1687 00ba 22FA03F3 	 lsr r3,r2,r3
 1688 00be 03F00103 	 and r3,r3,#1
 1689 00c2 002B     	 cmp r3,#0
 1690 00c4 31D0     	 beq .L104
 569:../Dave/Generated/AUTOMATION/automation.c ****           {
 570:../Dave/Generated/AUTOMATION/automation.c ****             /* Reset corresponding status bit in status word */
 571:../Dave/Generated/AUTOMATION/automation.c ****             AUTOMATION_EH_BitInterface_Word[error_words_count].status_word =
 1691              	 .loc 1 571 0
 1692 00c6 FC7B     	 ldrb r4,[r7,#15]
 572:../Dave/Generated/AUTOMATION/automation.c ****             AUTOMATION_WriteBit(AUTOMATION_EH_BitInterface_Word[error_words_count].status_word,bit_
 1693              	 .loc 1 572 0
 1694 00c8 FB7B     	 ldrb r3,[r7,#15]
 1695 00ca 2C4A     	 ldr r2,.L109
 1696 00cc DB00     	 lsls r3,r3,#3
 1697 00ce 1344     	 add r3,r3,r2
 1698 00d0 5A68     	 ldr r2,[r3,#4]
 1699 00d2 BB7B     	 ldrb r3,[r7,#14]
 1700 00d4 1046     	 mov r0,r2
 1701 00d6 1946     	 mov r1,r3
 1702 00d8 0022     	 movs r2,#0
 1703 00da FFF7FEFF 	 bl AUTOMATION_WriteBit
 1704 00de 0146     	 mov r1,r0
 571:../Dave/Generated/AUTOMATION/automation.c ****             AUTOMATION_WriteBit(AUTOMATION_EH_BitInterface_Word[error_words_count].status_word,bit_
 1705              	 .loc 1 571 0
 1706 00e0 264A     	 ldr r2,.L109
 1707 00e2 E300     	 lsls r3,r4,#3
 1708 00e4 1344     	 add r3,r3,r2
 1709 00e6 5960     	 str r1,[r3,#4]
 573:../Dave/Generated/AUTOMATION/automation.c **** 
 574:../Dave/Generated/AUTOMATION/automation.c ****             /* Error table pointer */
 575:../Dave/Generated/AUTOMATION/automation.c ****             error_table_entry_ptr = &AUTOMATION_EH_BitErrorTable[error_words_count][bit_count];
 1710              	 .loc 1 575 0
 1711 00e8 F97B     	 ldrb r1,[r7,#15]
 1712 00ea BB7B     	 ldrb r3,[r7,#14]
 1713 00ec 1A46     	 mov r2,r3
 1714 00ee 5200     	 lsls r2,r2,#1
 1715 00f0 1A44     	 add r2,r2,r3
 1716 00f2 9300     	 lsls r3,r2,#2
 1717 00f4 1A46     	 mov r2,r3
 1718 00f6 0B46     	 mov r3,r1
 1719 00f8 5B00     	 lsls r3,r3,#1
 1720 00fa 0B44     	 add r3,r3,r1
 1721 00fc DB01     	 lsls r3,r3,#7
 1722 00fe 1344     	 add r3,r3,r2
 1723 0100 1F4A     	 ldr r2,.L109+4
 1724 0102 1344     	 add r3,r3,r2
 1725 0104 BB60     	 str r3,[r7,#8]
 576:../Dave/Generated/AUTOMATION/automation.c ****             /* Report error is cleared */
 577:../Dave/Generated/AUTOMATION/automation.c ****             if (AUTOMATION_EH_ReportingInterface.eh_report_callback_ptr != NULL)
 1726              	 .loc 1 577 0
 1727 0106 1F4B     	 ldr r3,.L109+8
 1728 0108 5B68     	 ldr r3,[r3,#4]
 1729 010a 002B     	 cmp r3,#0
 1730 010c 0AD0     	 beq .L105
 578:../Dave/Generated/AUTOMATION/automation.c ****             {
 579:../Dave/Generated/AUTOMATION/automation.c ****               /* Report error on interface */
 580:../Dave/Generated/AUTOMATION/automation.c ****               AUTOMATION_EH_ReportingInterface.eh_report_callback_ptr
 1731              	 .loc 1 580 0
 1732 010e 1D4B     	 ldr r3,.L109+8
 1733 0110 5C68     	 ldr r4,[r3,#4]
 1734 0112 BB68     	 ldr r3,[r7,#8]
 1735 0114 1A7A     	 ldrb r2,[r3,#8]
 1736 0116 BB68     	 ldr r3,[r7,#8]
 1737 0118 9B7A     	 ldrb r3,[r3,#10]
 1738 011a FF20     	 movs r0,#255
 1739 011c 1146     	 mov r1,r2
 1740 011e 1A46     	 mov r2,r3
 1741 0120 0123     	 movs r3,#1
 1742 0122 A047     	 blx r4
 1743              	.L105:
 581:../Dave/Generated/AUTOMATION/automation.c ****               ((uint8_t)AUTOMATION_EH_BIT_INTERFACE_ID,
 582:../Dave/Generated/AUTOMATION/automation.c ****                   error_table_entry_ptr->error_id,
 583:../Dave/Generated/AUTOMATION/automation.c ****                   error_table_entry_ptr->error_severity,
 584:../Dave/Generated/AUTOMATION/automation.c ****                   (uint8_t)AUTOMATION_EH_ERROR_STATUS_SET);
 585:../Dave/Generated/AUTOMATION/automation.c ****             }
 586:../Dave/Generated/AUTOMATION/automation.c ****             /* Record in log book */
 587:../Dave/Generated/AUTOMATION/automation.c ****             logbook_entry.error_status = (uint8_t)AUTOMATION_EH_ERROR_STATUS_CLEARED;
 1744              	 .loc 1 587 0
 1745 0124 0023     	 movs r3,#0
 1746 0126 FB71     	 strb r3,[r7,#7]
 1747 0128 01E0     	 b .L103
 1748              	.L104:
 588:../Dave/Generated/AUTOMATION/automation.c ****           }
 589:../Dave/Generated/AUTOMATION/automation.c ****           else
 590:../Dave/Generated/AUTOMATION/automation.c ****           {
 591:../Dave/Generated/AUTOMATION/automation.c ****             /* Both error bit and status is in reset - No need to take any action */
 592:../Dave/Generated/AUTOMATION/automation.c ****             error_table_entry_ptr = NULL;
 1749              	 .loc 1 592 0
 1750 012a 0023     	 movs r3,#0
 1751 012c BB60     	 str r3,[r7,#8]
 1752              	.L103:
 593:../Dave/Generated/AUTOMATION/automation.c ****           }
 594:../Dave/Generated/AUTOMATION/automation.c ****         }
 595:../Dave/Generated/AUTOMATION/automation.c ****         /* Record in log book */
 596:../Dave/Generated/AUTOMATION/automation.c ****         if (error_table_entry_ptr != NULL)
 1753              	 .loc 1 596 0
 1754 012e BB68     	 ldr r3,[r7,#8]
 1755 0130 002B     	 cmp r3,#0
 1756 0132 10D0     	 beq .L106
 597:../Dave/Generated/AUTOMATION/automation.c ****         {
 598:../Dave/Generated/AUTOMATION/automation.c ****           logbook_entry.app_id = (uint8_t)AUTOMATION_EH_BIT_INTERFACE_ID;
 1757              	 .loc 1 598 0
 1758 0134 FF23     	 movs r3,#255
 1759 0136 3B71     	 strb r3,[r7,#4]
 599:../Dave/Generated/AUTOMATION/automation.c ****           logbook_entry.error_id = error_table_entry_ptr->error_id;
 1760              	 .loc 1 599 0
 1761 0138 BB68     	 ldr r3,[r7,#8]
 1762 013a 1B7A     	 ldrb r3,[r3,#8]
 1763 013c 7B71     	 strb r3,[r7,#5]
 600:../Dave/Generated/AUTOMATION/automation.c ****           logbook_entry.error_severity = error_table_entry_ptr->error_severity;
 1764              	 .loc 1 600 0
 1765 013e BB68     	 ldr r3,[r7,#8]
 1766 0140 9B7A     	 ldrb r3,[r3,#10]
 1767 0142 BB71     	 strb r3,[r7,#6]
 601:../Dave/Generated/AUTOMATION/automation.c ****           /* Gives the current system time in microsecond since start of counter.*/
 602:../Dave/Generated/AUTOMATION/automation.c ****           logbook_entry.timestamp = SYSTIMER_GetTime();
 1768              	 .loc 1 602 0
 1769 0144 FFF7FEFF 	 bl SYSTIMER_GetTime
 1770 0148 0346     	 mov r3,r0
 1771 014a 3B60     	 str r3,[r7]
 603:../Dave/Generated/AUTOMATION/automation.c ****           AUTOMATION_EH_WriteLogbook(logbook_entry);
 1772              	 .loc 1 603 0
 1773 014c 3B46     	 mov r3,r7
 1774 014e 93E80300 	 ldmia r3,{r0,r1}
 1775 0152 FFF7FEFF 	 bl AUTOMATION_EH_WriteLogbook
 1776              	.L106:
 539:../Dave/Generated/AUTOMATION/automation.c ****       {
 1777              	 .loc 1 539 0 discriminator 2
 1778 0156 BB7B     	 ldrb r3,[r7,#14]
 1779 0158 0133     	 adds r3,r3,#1
 1780 015a BB73     	 strb r3,[r7,#14]
 1781              	.L99:
 539:../Dave/Generated/AUTOMATION/automation.c ****       {
 1782              	 .loc 1 539 0 is_stmt 0 discriminator 1
 1783 015c BB7B     	 ldrb r3,[r7,#14]
 1784 015e 1F2B     	 cmp r3,#31
 1785 0160 7FF665AF 	 bls .L107
 1786              	.L98:
 533:../Dave/Generated/AUTOMATION/automation.c ****   {
 1787              	 .loc 1 533 0 is_stmt 1 discriminator 2
 1788 0164 FB7B     	 ldrb r3,[r7,#15]
 1789 0166 0133     	 adds r3,r3,#1
 1790 0168 FB73     	 strb r3,[r7,#15]
 1791              	.L96:
 533:../Dave/Generated/AUTOMATION/automation.c ****   {
 1792              	 .loc 1 533 0 is_stmt 0 discriminator 1
 1793 016a FB7B     	 ldrb r3,[r7,#15]
 1794 016c 002B     	 cmp r3,#0
 1795 016e 3FF44DAF 	 beq .L108
 604:../Dave/Generated/AUTOMATION/automation.c ****         }
 605:../Dave/Generated/AUTOMATION/automation.c ****       } /* END Loop to scan all registered bits insider error word */
 606:../Dave/Generated/AUTOMATION/automation.c ****     } /* Error word or corresponding status word not set  */
 607:../Dave/Generated/AUTOMATION/automation.c ****   } /* END Loop to scan all registered bit interface error words */
 608:../Dave/Generated/AUTOMATION/automation.c **** 
 609:../Dave/Generated/AUTOMATION/automation.c ****   /* Read errors reported by App from temporary buffer and log it in log book and send through comm
 610:../Dave/Generated/AUTOMATION/automation.c ****   AUTOMATION_AppInterface_ReadReportedErrors();
 1796              	 .loc 1 610 0 is_stmt 1
 1797 0172 FFF7FEFF 	 bl AUTOMATION_AppInterface_ReadReportedErrors
 611:../Dave/Generated/AUTOMATION/automation.c **** }
 1798              	 .loc 1 611 0
 1799 0176 1437     	 adds r7,r7,#20
 1800              	.LCFI80:
 1801              	 .cfi_def_cfa_offset 12
 1802 0178 BD46     	 mov sp,r7
 1803              	.LCFI81:
 1804              	 .cfi_def_cfa_register 13
 1805              	 
 1806 017a 90BD     	 pop {r4,r7,pc}
 1807              	.L110:
 1808              	 .align 2
 1809              	.L109:
 1810 017c 00000000 	 .word AUTOMATION_EH_BitInterface_Word
 1811 0180 00000000 	 .word AUTOMATION_EH_BitErrorTable
 1812 0184 00000000 	 .word AUTOMATION_EH_ReportingInterface
 1813              	 .cfi_endproc
 1814              	.LFE149:
 1816              	 .section .text.AUTOMATION_EH_AppInterface_ReportError,"ax",%progbits
 1817              	 .align 2
 1818              	 .global AUTOMATION_EH_AppInterface_ReportError
 1819              	 .thumb
 1820              	 .thumb_func
 1822              	AUTOMATION_EH_AppInterface_ReportError:
 1823              	.LFB150:
 612:../Dave/Generated/AUTOMATION/automation.c **** 
 613:../Dave/Generated/AUTOMATION/automation.c **** /**
 614:../Dave/Generated/AUTOMATION/automation.c ****  * Automation Parameter set response in corresponding response buffer
 615:../Dave/Generated/AUTOMATION/automation.c ****  */
 616:../Dave/Generated/AUTOMATION/automation.c **** void AUTOMATION_EH_AppInterface_ReportError(uint8_t app_id, uint8_t error_id, AUTOMATION_EH_ERROR_S
 617:../Dave/Generated/AUTOMATION/automation.c **** {
 1824              	 .loc 1 617 0
 1825              	 .cfi_startproc
 1826              	 
 1827              	 
 1828 0000 90B5     	 push {r4,r7,lr}
 1829              	.LCFI82:
 1830              	 .cfi_def_cfa_offset 12
 1831              	 .cfi_offset 4,-12
 1832              	 .cfi_offset 7,-8
 1833              	 .cfi_offset 14,-4
 1834 0002 87B0     	 sub sp,sp,#28
 1835              	.LCFI83:
 1836              	 .cfi_def_cfa_offset 40
 1837 0004 00AF     	 add r7,sp,#0
 1838              	.LCFI84:
 1839              	 .cfi_def_cfa_register 7
 1840 0006 0446     	 mov r4,r0
 1841 0008 0846     	 mov r0,r1
 1842 000a 1146     	 mov r1,r2
 1843 000c 1A46     	 mov r2,r3
 1844 000e 2346     	 mov r3,r4
 1845 0010 FB71     	 strb r3,[r7,#7]
 1846 0012 0346     	 mov r3,r0
 1847 0014 BB71     	 strb r3,[r7,#6]
 1848 0016 0B46     	 mov r3,r1
 1849 0018 7B71     	 strb r3,[r7,#5]
 1850 001a 1346     	 mov r3,r2
 1851 001c 3B71     	 strb r3,[r7,#4]
 618:../Dave/Generated/AUTOMATION/automation.c ****   AUTOMATION_EH_LOGBOOK_ENTRY_t error;
 619:../Dave/Generated/AUTOMATION/automation.c ****   AUTOMATION_EH_LOGBOOK_ENTRY_t *logbook;
 620:../Dave/Generated/AUTOMATION/automation.c ****   if ((error_severity == AUTOMATION_EH_ERROR_SEVERITY_CRITICAL) ||
 1852              	 .loc 1 620 0
 1853 001e 7B79     	 ldrb r3,[r7,#5]
 1854 0020 032B     	 cmp r3,#3
 1855 0022 02D0     	 beq .L112
 1856              	 .loc 1 620 0 is_stmt 0 discriminator 1
 1857 0024 7B79     	 ldrb r3,[r7,#5]
 1858 0026 042B     	 cmp r3,#4
 1859 0028 1DD1     	 bne .L113
 1860              	.L112:
 621:../Dave/Generated/AUTOMATION/automation.c ****       (error_severity == AUTOMATION_EH_ERROR_SEVERITY_SAFETY_CRITICAL))
 622:../Dave/Generated/AUTOMATION/automation.c ****   {
 623:../Dave/Generated/AUTOMATION/automation.c ****     /* Critical error occurred - Need to report immediately */
 624:../Dave/Generated/AUTOMATION/automation.c ****     if (AUTOMATION_EH_ReportingInterface.eh_report_callback_ptr != NULL)
 1861              	 .loc 1 624 0 is_stmt 1
 1862 002a 274B     	 ldr r3,.L118
 1863 002c 5B68     	 ldr r3,[r3,#4]
 1864 002e 002B     	 cmp r3,#0
 1865 0030 06D0     	 beq .L114
 625:../Dave/Generated/AUTOMATION/automation.c ****     {
 626:../Dave/Generated/AUTOMATION/automation.c ****       AUTOMATION_EH_ReportingInterface.eh_report_callback_ptr(app_id,error_id,(uint8_t)error_severi
 1866              	 .loc 1 626 0
 1867 0032 254B     	 ldr r3,.L118
 1868 0034 5C68     	 ldr r4,[r3,#4]
 1869 0036 F879     	 ldrb r0,[r7,#7]
 1870 0038 B979     	 ldrb r1,[r7,#6]
 1871 003a 7A79     	 ldrb r2,[r7,#5]
 1872 003c 3B79     	 ldrb r3,[r7,#4]
 1873 003e A047     	 blx r4
 1874              	.L114:
 627:../Dave/Generated/AUTOMATION/automation.c ****     }
 628:../Dave/Generated/AUTOMATION/automation.c ****     /* Record error in log book */
 629:../Dave/Generated/AUTOMATION/automation.c ****     error.app_id = app_id;
 1875              	 .loc 1 629 0
 1876 0040 FB79     	 ldrb r3,[r7,#7]
 1877 0042 3B74     	 strb r3,[r7,#16]
 630:../Dave/Generated/AUTOMATION/automation.c ****     error.error_id = error_id;
 1878              	 .loc 1 630 0
 1879 0044 BB79     	 ldrb r3,[r7,#6]
 1880 0046 7B74     	 strb r3,[r7,#17]
 631:../Dave/Generated/AUTOMATION/automation.c ****     error.error_severity = (uint8_t)error_severity;
 1881              	 .loc 1 631 0
 1882 0048 7B79     	 ldrb r3,[r7,#5]
 1883 004a BB74     	 strb r3,[r7,#18]
 632:../Dave/Generated/AUTOMATION/automation.c ****     error.error_status = (uint8_t)status;
 1884              	 .loc 1 632 0
 1885 004c 3B79     	 ldrb r3,[r7,#4]
 1886 004e FB74     	 strb r3,[r7,#19]
 633:../Dave/Generated/AUTOMATION/automation.c ****     error.timestamp = SYSTIMER_GetTime();
 1887              	 .loc 1 633 0
 1888 0050 FFF7FEFF 	 bl SYSTIMER_GetTime
 1889 0054 0346     	 mov r3,r0
 1890 0056 FB60     	 str r3,[r7,#12]
 634:../Dave/Generated/AUTOMATION/automation.c ****     AUTOMATION_EH_WriteLogbook(error);
 1891              	 .loc 1 634 0
 1892 0058 07F10C03 	 add r3,r7,#12
 1893 005c 93E80300 	 ldmia r3,{r0,r1}
 1894 0060 FFF7FEFF 	 bl AUTOMATION_EH_WriteLogbook
 1895 0064 2CE0     	 b .L111
 1896              	.L113:
 635:../Dave/Generated/AUTOMATION/automation.c ****   }
 636:../Dave/Generated/AUTOMATION/automation.c ****   else
 637:../Dave/Generated/AUTOMATION/automation.c ****   {
 638:../Dave/Generated/AUTOMATION/automation.c ****     /* Non critical error occurred - buffer it for processing */
 639:../Dave/Generated/AUTOMATION/automation.c ****     /* Overwriting can be possible */
 640:../Dave/Generated/AUTOMATION/automation.c ****     logbook = &AUTOMATION_EH_AppErrorBuf.error_logbook_ptr[AUTOMATION_EH_AppErrorBuf.write_index++]
 1897              	 .loc 1 640 0
 1898 0066 194B     	 ldr r3,.L118+4
 1899 0068 5A68     	 ldr r2,[r3,#4]
 1900 006a 184B     	 ldr r3,.L118+4
 1901 006c 5B78     	 ldrb r3,[r3,#1]
 1902 006e 591C     	 adds r1,r3,#1
 1903 0070 C8B2     	 uxtb r0,r1
 1904 0072 1649     	 ldr r1,.L118+4
 1905 0074 4870     	 strb r0,[r1,#1]
 1906 0076 DB00     	 lsls r3,r3,#3
 1907 0078 1344     	 add r3,r3,r2
 1908 007a 7B61     	 str r3,[r7,#20]
 641:../Dave/Generated/AUTOMATION/automation.c ****     if (AUTOMATION_EH_AppErrorBuf.write_index == AUTOMATION_EH_APPBUF_SIZE)
 1909              	 .loc 1 641 0
 1910 007c 134B     	 ldr r3,.L118+4
 1911 007e 5B78     	 ldrb r3,[r3,#1]
 1912 0080 052B     	 cmp r3,#5
 1913 0082 02D1     	 bne .L116
 642:../Dave/Generated/AUTOMATION/automation.c ****     {
 643:../Dave/Generated/AUTOMATION/automation.c ****       /* Temporary buffer is ring buffer */
 644:../Dave/Generated/AUTOMATION/automation.c ****       AUTOMATION_EH_AppErrorBuf.write_index = 0U;
 1914              	 .loc 1 644 0
 1915 0084 114B     	 ldr r3,.L118+4
 1916 0086 0022     	 movs r2,#0
 1917 0088 5A70     	 strb r2,[r3,#1]
 1918              	.L116:
 645:../Dave/Generated/AUTOMATION/automation.c ****     }
 646:../Dave/Generated/AUTOMATION/automation.c ****     if (AUTOMATION_EH_AppErrorBuf.data_length < AUTOMATION_EH_APPBUF_SIZE)
 1919              	 .loc 1 646 0
 1920 008a 104B     	 ldr r3,.L118+4
 1921 008c 9B78     	 ldrb r3,[r3,#2]
 1922 008e 042B     	 cmp r3,#4
 1923 0090 05D8     	 bhi .L117
 647:../Dave/Generated/AUTOMATION/automation.c ****     {
 648:../Dave/Generated/AUTOMATION/automation.c ****       AUTOMATION_EH_AppErrorBuf.data_length++;
 1924              	 .loc 1 648 0
 1925 0092 0E4B     	 ldr r3,.L118+4
 1926 0094 9B78     	 ldrb r3,[r3,#2]
 1927 0096 0133     	 adds r3,r3,#1
 1928 0098 DAB2     	 uxtb r2,r3
 1929 009a 0C4B     	 ldr r3,.L118+4
 1930 009c 9A70     	 strb r2,[r3,#2]
 1931              	.L117:
 649:../Dave/Generated/AUTOMATION/automation.c ****     }
 650:../Dave/Generated/AUTOMATION/automation.c ****     logbook->app_id = app_id;
 1932              	 .loc 1 650 0
 1933 009e 7B69     	 ldr r3,[r7,#20]
 1934 00a0 FA79     	 ldrb r2,[r7,#7]
 1935 00a2 1A71     	 strb r2,[r3,#4]
 651:../Dave/Generated/AUTOMATION/automation.c ****     logbook->error_id = (uint8_t)error_id;
 1936              	 .loc 1 651 0
 1937 00a4 7B69     	 ldr r3,[r7,#20]
 1938 00a6 BA79     	 ldrb r2,[r7,#6]
 1939 00a8 5A71     	 strb r2,[r3,#5]
 652:../Dave/Generated/AUTOMATION/automation.c ****     logbook->error_severity = (uint8_t)error_severity;
 1940              	 .loc 1 652 0
 1941 00aa 7B69     	 ldr r3,[r7,#20]
 1942 00ac 7A79     	 ldrb r2,[r7,#5]
 1943 00ae 9A71     	 strb r2,[r3,#6]
 653:../Dave/Generated/AUTOMATION/automation.c ****     logbook->error_status = (uint8_t)status;
 1944              	 .loc 1 653 0
 1945 00b0 7B69     	 ldr r3,[r7,#20]
 1946 00b2 3A79     	 ldrb r2,[r7,#4]
 1947 00b4 DA71     	 strb r2,[r3,#7]
 654:../Dave/Generated/AUTOMATION/automation.c ****     logbook->timestamp = SYSTIMER_GetTime();
 1948              	 .loc 1 654 0
 1949 00b6 FFF7FEFF 	 bl SYSTIMER_GetTime
 1950 00ba 0246     	 mov r2,r0
 1951 00bc 7B69     	 ldr r3,[r7,#20]
 1952 00be 1A60     	 str r2,[r3]
 1953              	.L111:
 655:../Dave/Generated/AUTOMATION/automation.c ****   }
 656:../Dave/Generated/AUTOMATION/automation.c **** }
 1954              	 .loc 1 656 0
 1955 00c0 1C37     	 adds r7,r7,#28
 1956              	.LCFI85:
 1957              	 .cfi_def_cfa_offset 12
 1958 00c2 BD46     	 mov sp,r7
 1959              	.LCFI86:
 1960              	 .cfi_def_cfa_register 13
 1961              	 
 1962 00c4 90BD     	 pop {r4,r7,pc}
 1963              	.L119:
 1964 00c6 00BF     	 .align 2
 1965              	.L118:
 1966 00c8 00000000 	 .word AUTOMATION_EH_ReportingInterface
 1967 00cc 00000000 	 .word AUTOMATION_EH_AppErrorBuf
 1968              	 .cfi_endproc
 1969              	.LFE150:
 1971              	 .section .text.AUTOMATION_EH_BitInterface_ReportError,"ax",%progbits
 1972              	 .align 2
 1973              	 .global AUTOMATION_EH_BitInterface_ReportError
 1974              	 .thumb
 1975              	 .thumb_func
 1977              	AUTOMATION_EH_BitInterface_ReportError:
 1978              	.LFB151:
 657:../Dave/Generated/AUTOMATION/automation.c **** 
 658:../Dave/Generated/AUTOMATION/automation.c **** /**
 659:../Dave/Generated/AUTOMATION/automation.c ****  * This will update Bit interface Error word.
 660:../Dave/Generated/AUTOMATION/automation.c ****  */
 661:../Dave/Generated/AUTOMATION/automation.c **** AUTOMATION_STATUS_t AUTOMATION_EH_BitInterface_ReportError(uint8_t interface_id,uint32_t error_word
 662:../Dave/Generated/AUTOMATION/automation.c **** {
 1979              	 .loc 1 662 0
 1980              	 .cfi_startproc
 1981              	 
 1982              	 
 1983              	 
 1984 0000 80B4     	 push {r7}
 1985              	.LCFI87:
 1986              	 .cfi_def_cfa_offset 4
 1987              	 .cfi_offset 7,-4
 1988 0002 85B0     	 sub sp,sp,#20
 1989              	.LCFI88:
 1990              	 .cfi_def_cfa_offset 24
 1991 0004 00AF     	 add r7,sp,#0
 1992              	.LCFI89:
 1993              	 .cfi_def_cfa_register 7
 1994 0006 0346     	 mov r3,r0
 1995 0008 3960     	 str r1,[r7]
 1996 000a FB71     	 strb r3,[r7,#7]
 663:../Dave/Generated/AUTOMATION/automation.c ****   AUTOMATION_STATUS_t status;
 664:../Dave/Generated/AUTOMATION/automation.c ****   if (interface_id < AUTOMATION_NUM_INTERFACES)
 1997              	 .loc 1 664 0
 1998 000c FB79     	 ldrb r3,[r7,#7]
 1999 000e 002B     	 cmp r3,#0
 2000 0010 07D1     	 bne .L121
 665:../Dave/Generated/AUTOMATION/automation.c ****   {
 666:../Dave/Generated/AUTOMATION/automation.c ****     /* Valid Bit Interface - Update Bit interface Error Word */
 667:../Dave/Generated/AUTOMATION/automation.c ****     AUTOMATION_EH_BitInterface_Word[interface_id].error_word = error_word_val;
 2001              	 .loc 1 667 0
 2002 0012 FB79     	 ldrb r3,[r7,#7]
 2003 0014 0749     	 ldr r1,.L124
 2004 0016 3A68     	 ldr r2,[r7]
 2005 0018 41F83320 	 str r2,[r1,r3,lsl#3]
 668:../Dave/Generated/AUTOMATION/automation.c ****     status = AUTOMATION_STATUS_SUCCESS;
 2006              	 .loc 1 668 0
 2007 001c 0023     	 movs r3,#0
 2008 001e FB73     	 strb r3,[r7,#15]
 2009 0020 01E0     	 b .L122
 2010              	.L121:
 669:../Dave/Generated/AUTOMATION/automation.c ****   }
 670:../Dave/Generated/AUTOMATION/automation.c ****   else
 671:../Dave/Generated/AUTOMATION/automation.c ****   {
 672:../Dave/Generated/AUTOMATION/automation.c ****     /* Invalid Interface ID */
 673:../Dave/Generated/AUTOMATION/automation.c ****     status = AUTOMATION_STATUS_INVALID_INTERFACE_ID;
 2011              	 .loc 1 673 0
 2012 0022 0C23     	 movs r3,#12
 2013 0024 FB73     	 strb r3,[r7,#15]
 2014              	.L122:
 674:../Dave/Generated/AUTOMATION/automation.c ****   }
 675:../Dave/Generated/AUTOMATION/automation.c ****   return status;
 2015              	 .loc 1 675 0
 2016 0026 FB7B     	 ldrb r3,[r7,#15]
 676:../Dave/Generated/AUTOMATION/automation.c **** }
 2017              	 .loc 1 676 0
 2018 0028 1846     	 mov r0,r3
 2019 002a 1437     	 adds r7,r7,#20
 2020              	.LCFI90:
 2021              	 .cfi_def_cfa_offset 4
 2022 002c BD46     	 mov sp,r7
 2023              	.LCFI91:
 2024              	 .cfi_def_cfa_register 13
 2025              	 
 2026 002e 5DF8047B 	 ldr r7,[sp],#4
 2027              	.LCFI92:
 2028              	 .cfi_restore 7
 2029              	 .cfi_def_cfa_offset 0
 2030 0032 7047     	 bx lr
 2031              	.L125:
 2032              	 .align 2
 2033              	.L124:
 2034 0034 00000000 	 .word AUTOMATION_EH_BitInterface_Word
 2035              	 .cfi_endproc
 2036              	.LFE151:
 2038              	 .section .text.AUTOMATION_EH_WriteLogbook,"ax",%progbits
 2039              	 .align 2
 2040              	 .global AUTOMATION_EH_WriteLogbook
 2041              	 .thumb
 2042              	 .thumb_func
 2044              	AUTOMATION_EH_WriteLogbook:
 2045              	.LFB152:
 677:../Dave/Generated/AUTOMATION/automation.c **** 
 678:../Dave/Generated/AUTOMATION/automation.c **** /**
 679:../Dave/Generated/AUTOMATION/automation.c ****  * This API will record error entry in Error Log book
 680:../Dave/Generated/AUTOMATION/automation.c ****  * Critical errors     - logged in Log book Critical section     - Overwrite not possible
 681:../Dave/Generated/AUTOMATION/automation.c ****  * Info/Warning errors - logged in Log book Info/Warning section - Overwrite possible
 682:../Dave/Generated/AUTOMATION/automation.c ****  */
 683:../Dave/Generated/AUTOMATION/automation.c **** void AUTOMATION_EH_WriteLogbook(AUTOMATION_EH_LOGBOOK_ENTRY_t error)
 684:../Dave/Generated/AUTOMATION/automation.c **** {
 2046              	 .loc 1 684 0
 2047              	 .cfi_startproc
 2048              	 
 2049              	 
 2050 0000 90B5     	 push {r4,r7,lr}
 2051              	.LCFI93:
 2052              	 .cfi_def_cfa_offset 12
 2053              	 .cfi_offset 4,-12
 2054              	 .cfi_offset 7,-8
 2055              	 .cfi_offset 14,-4
 2056 0002 85B0     	 sub sp,sp,#20
 2057              	.LCFI94:
 2058              	 .cfi_def_cfa_offset 32
 2059 0004 00AF     	 add r7,sp,#0
 2060              	.LCFI95:
 2061              	 .cfi_def_cfa_register 7
 2062 0006 3B46     	 mov r3,r7
 2063 0008 83E80300 	 stmia r3,{r0,r1}
 685:../Dave/Generated/AUTOMATION/automation.c ****   AUTOMATION_EH_LOGBOOK_ENTRY_t * logbook;
 686:../Dave/Generated/AUTOMATION/automation.c ****   /* Check error severity & place accordingly in Log book */
 687:../Dave/Generated/AUTOMATION/automation.c ****   if ((error.error_severity == (uint8_t)AUTOMATION_EH_ERROR_SEVERITY_CRITICAL)||
 2064              	 .loc 1 687 0
 2065 000c BB79     	 ldrb r3,[r7,#6]
 2066 000e 032B     	 cmp r3,#3
 2067 0010 02D0     	 beq .L127
 688:../Dave/Generated/AUTOMATION/automation.c ****       (error.error_severity == (uint8_t)AUTOMATION_EH_ERROR_SEVERITY_SAFETY_CRITICAL))
 2068              	 .loc 1 688 0 discriminator 1
 2069 0012 BB79     	 ldrb r3,[r7,#6]
 687:../Dave/Generated/AUTOMATION/automation.c ****       (error.error_severity == (uint8_t)AUTOMATION_EH_ERROR_SEVERITY_SAFETY_CRITICAL))
 2070              	 .loc 1 687 0 discriminator 1
 2071 0014 042B     	 cmp r3,#4
 2072 0016 2BD1     	 bne .L128
 2073              	.L127:
 689:../Dave/Generated/AUTOMATION/automation.c ****   {
 690:../Dave/Generated/AUTOMATION/automation.c ****     if (AUTOMATION_EH_ErrorLogbook.cs_data_length < AUTOMATION_EH_LOGBOOK_CS_SIZE)
 2074              	 .loc 1 690 0
 2075 0018 2E4B     	 ldr r3,.L136
 2076 001a 9B78     	 ldrb r3,[r3,#2]
 2077 001c 092B     	 cmp r3,#9
 2078 001e 18D8     	 bhi .L129
 691:../Dave/Generated/AUTOMATION/automation.c ****     {
 692:../Dave/Generated/AUTOMATION/automation.c ****       /* Successfully logged the error */
 693:../Dave/Generated/AUTOMATION/automation.c ****       logbook = &AUTOMATION_EH_ErrorLogbook.error_logbook_ptr[AUTOMATION_EH_ErrorLogbook.cs_write_i
 2079              	 .loc 1 693 0
 2080 0020 2C4B     	 ldr r3,.L136
 2081 0022 9A68     	 ldr r2,[r3,#8]
 2082 0024 2B4B     	 ldr r3,.L136
 2083 0026 5B78     	 ldrb r3,[r3,#1]
 2084 0028 591C     	 adds r1,r3,#1
 2085 002a C8B2     	 uxtb r0,r1
 2086 002c 2949     	 ldr r1,.L136
 2087 002e 4870     	 strb r0,[r1,#1]
 2088 0030 DB00     	 lsls r3,r3,#3
 2089 0032 1344     	 add r3,r3,r2
 2090 0034 FB60     	 str r3,[r7,#12]
 694:../Dave/Generated/AUTOMATION/automation.c ****       AUTOMATION_EH_ErrorLogbook.cs_data_length++;
 2091              	 .loc 1 694 0
 2092 0036 274B     	 ldr r3,.L136
 2093 0038 9B78     	 ldrb r3,[r3,#2]
 2094 003a 0133     	 adds r3,r3,#1
 2095 003c DAB2     	 uxtb r2,r3
 2096 003e 254B     	 ldr r3,.L136
 2097 0040 9A70     	 strb r2,[r3,#2]
 695:../Dave/Generated/AUTOMATION/automation.c ****       if (AUTOMATION_EH_ErrorLogbook.cs_write_index == AUTOMATION_EH_LOGBOOK_CS_SIZE)
 2098              	 .loc 1 695 0
 2099 0042 244B     	 ldr r3,.L136
 2100 0044 5B78     	 ldrb r3,[r3,#1]
 2101 0046 0A2B     	 cmp r3,#10
 2102 0048 11D1     	 bne .L131
 696:../Dave/Generated/AUTOMATION/automation.c ****       {
 697:../Dave/Generated/AUTOMATION/automation.c ****         /* Log book Critical section ring buffer */
 698:../Dave/Generated/AUTOMATION/automation.c ****         AUTOMATION_EH_ErrorLogbook.cs_write_index = 0U;
 2103              	 .loc 1 698 0
 2104 004a 224B     	 ldr r3,.L136
 2105 004c 0022     	 movs r2,#0
 2106 004e 5A70     	 strb r2,[r3,#1]
 690:../Dave/Generated/AUTOMATION/automation.c ****     {
 2107              	 .loc 1 690 0
 2108 0050 2AE0     	 b .L133
 2109              	.L129:
 699:../Dave/Generated/AUTOMATION/automation.c ****       }
 700:../Dave/Generated/AUTOMATION/automation.c ****     }
 701:../Dave/Generated/AUTOMATION/automation.c ****     else
 702:../Dave/Generated/AUTOMATION/automation.c ****     {
 703:../Dave/Generated/AUTOMATION/automation.c ****       if (AUTOMATION_EH_ReportingInterface.eh_report_callback_ptr != NULL)
 2110              	 .loc 1 703 0
 2111 0052 214B     	 ldr r3,.L136+4
 2112 0054 5B68     	 ldr r3,[r3,#4]
 2113 0056 002B     	 cmp r3,#0
 2114 0058 06D0     	 beq .L132
 704:../Dave/Generated/AUTOMATION/automation.c ****       {
 705:../Dave/Generated/AUTOMATION/automation.c ****         /* No Space to store new error entries - Report error on interface */
 706:../Dave/Generated/AUTOMATION/automation.c ****         AUTOMATION_EH_ReportingInterface.eh_report_callback_ptr((uint8_t)AUTOMATION_EH_BIT_INTERFAC
 2115              	 .loc 1 706 0
 2116 005a 1F4B     	 ldr r3,.L136+4
 2117 005c 5C68     	 ldr r4,[r3,#4]
 2118 005e FF20     	 movs r0,#255
 2119 0060 0921     	 movs r1,#9
 2120 0062 0022     	 movs r2,#0
 2121 0064 0123     	 movs r3,#1
 2122 0066 A047     	 blx r4
 2123              	.L132:
 707:../Dave/Generated/AUTOMATION/automation.c ****             (uint8_t)AUTOMATION_STATUS_LOGBOOK_CS_FULL,
 708:../Dave/Generated/AUTOMATION/automation.c ****             (uint8_t)AUTOMATION_EH_ERROR_SEVERITY_INFO,
 709:../Dave/Generated/AUTOMATION/automation.c ****             (uint8_t)AUTOMATION_EH_ERROR_STATUS_SET);
 710:../Dave/Generated/AUTOMATION/automation.c ****       }
 711:../Dave/Generated/AUTOMATION/automation.c ****       logbook = NULL;
 2124              	 .loc 1 711 0
 2125 0068 0023     	 movs r3,#0
 2126 006a FB60     	 str r3,[r7,#12]
 690:../Dave/Generated/AUTOMATION/automation.c ****     {
 2127              	 .loc 1 690 0
 2128 006c 1CE0     	 b .L133
 2129              	.L131:
 690:../Dave/Generated/AUTOMATION/automation.c ****     {
 2130              	 .loc 1 690 0 is_stmt 0 discriminator 1
 2131 006e 1BE0     	 b .L133
 2132              	.L128:
 712:../Dave/Generated/AUTOMATION/automation.c ****     }
 713:../Dave/Generated/AUTOMATION/automation.c ****   }
 714:../Dave/Generated/AUTOMATION/automation.c ****   else
 715:../Dave/Generated/AUTOMATION/automation.c ****   {
 716:../Dave/Generated/AUTOMATION/automation.c ****     logbook = &AUTOMATION_EH_ErrorLogbook.error_logbook_ptr[AUTOMATION_EH_ErrorLogbook.info_write_i
 2133              	 .loc 1 716 0 is_stmt 1
 2134 0070 184B     	 ldr r3,.L136
 2135 0072 9A68     	 ldr r2,[r3,#8]
 2136 0074 174B     	 ldr r3,.L136
 2137 0076 1B79     	 ldrb r3,[r3,#4]
 2138 0078 591C     	 adds r1,r3,#1
 2139 007a C8B2     	 uxtb r0,r1
 2140 007c 1549     	 ldr r1,.L136
 2141 007e 0871     	 strb r0,[r1,#4]
 2142 0080 DB00     	 lsls r3,r3,#3
 2143 0082 1344     	 add r3,r3,r2
 2144 0084 FB60     	 str r3,[r7,#12]
 717:../Dave/Generated/AUTOMATION/automation.c ****     if (AUTOMATION_EH_ErrorLogbook.info_write_index == ((uint32_t)AUTOMATION_EH_LOGBOOK_INFO_SIZE <
 2145              	 .loc 1 717 0
 2146 0086 134B     	 ldr r3,.L136
 2147 0088 1B79     	 ldrb r3,[r3,#4]
 2148 008a 142B     	 cmp r3,#20
 2149 008c 02D1     	 bne .L134
 718:../Dave/Generated/AUTOMATION/automation.c ****     {
 719:../Dave/Generated/AUTOMATION/automation.c ****       /* Log book info section ring buffer */
 720:../Dave/Generated/AUTOMATION/automation.c ****       AUTOMATION_EH_ErrorLogbook.info_write_index = AUTOMATION_EH_LOGBOOK_CS_SIZE;
 2150              	 .loc 1 720 0
 2151 008e 114B     	 ldr r3,.L136
 2152 0090 0A22     	 movs r2,#10
 2153 0092 1A71     	 strb r2,[r3,#4]
 2154              	.L134:
 721:../Dave/Generated/AUTOMATION/automation.c ****     }
 722:../Dave/Generated/AUTOMATION/automation.c ****     if (AUTOMATION_EH_ErrorLogbook.info_data_length < AUTOMATION_EH_LOGBOOK_INFO_SIZE)
 2155              	 .loc 1 722 0
 2156 0094 0F4B     	 ldr r3,.L136
 2157 0096 5B79     	 ldrb r3,[r3,#5]
 2158 0098 092B     	 cmp r3,#9
 2159 009a 05D8     	 bhi .L133
 723:../Dave/Generated/AUTOMATION/automation.c ****     {
 724:../Dave/Generated/AUTOMATION/automation.c ****       AUTOMATION_EH_ErrorLogbook.info_data_length++;
 2160              	 .loc 1 724 0
 2161 009c 0D4B     	 ldr r3,.L136
 2162 009e 5B79     	 ldrb r3,[r3,#5]
 2163 00a0 0133     	 adds r3,r3,#1
 2164 00a2 DAB2     	 uxtb r2,r3
 2165 00a4 0B4B     	 ldr r3,.L136
 2166 00a6 5A71     	 strb r2,[r3,#5]
 2167              	.L133:
 725:../Dave/Generated/AUTOMATION/automation.c ****     }
 726:../Dave/Generated/AUTOMATION/automation.c ****   }
 727:../Dave/Generated/AUTOMATION/automation.c **** 
 728:../Dave/Generated/AUTOMATION/automation.c ****   if (logbook != NULL)
 2168              	 .loc 1 728 0
 2169 00a8 FB68     	 ldr r3,[r7,#12]
 2170 00aa 002B     	 cmp r3,#0
 2171 00ac 0ED0     	 beq .L126
 729:../Dave/Generated/AUTOMATION/automation.c ****   {
 730:../Dave/Generated/AUTOMATION/automation.c ****     logbook->app_id = error.app_id;
 2172              	 .loc 1 730 0
 2173 00ae 3A79     	 ldrb r2,[r7,#4]
 2174 00b0 FB68     	 ldr r3,[r7,#12]
 2175 00b2 1A71     	 strb r2,[r3,#4]
 731:../Dave/Generated/AUTOMATION/automation.c ****     logbook->error_id = error.error_id;
 2176              	 .loc 1 731 0
 2177 00b4 7A79     	 ldrb r2,[r7,#5]
 2178 00b6 FB68     	 ldr r3,[r7,#12]
 2179 00b8 5A71     	 strb r2,[r3,#5]
 732:../Dave/Generated/AUTOMATION/automation.c ****     logbook->error_severity = error.error_severity;
 2180              	 .loc 1 732 0
 2181 00ba BA79     	 ldrb r2,[r7,#6]
 2182 00bc FB68     	 ldr r3,[r7,#12]
 2183 00be 9A71     	 strb r2,[r3,#6]
 733:../Dave/Generated/AUTOMATION/automation.c ****     logbook->error_status = error.error_status;
 2184              	 .loc 1 733 0
 2185 00c0 FA79     	 ldrb r2,[r7,#7]
 2186 00c2 FB68     	 ldr r3,[r7,#12]
 2187 00c4 DA71     	 strb r2,[r3,#7]
 734:../Dave/Generated/AUTOMATION/automation.c ****     logbook->timestamp = error.timestamp;
 2188              	 .loc 1 734 0
 2189 00c6 3A68     	 ldr r2,[r7]
 2190 00c8 FB68     	 ldr r3,[r7,#12]
 2191 00ca 1A60     	 str r2,[r3]
 2192              	.L126:
 735:../Dave/Generated/AUTOMATION/automation.c ****   }
 736:../Dave/Generated/AUTOMATION/automation.c **** }
 2193              	 .loc 1 736 0
 2194 00cc 1437     	 adds r7,r7,#20
 2195              	.LCFI96:
 2196              	 .cfi_def_cfa_offset 12
 2197 00ce BD46     	 mov sp,r7
 2198              	.LCFI97:
 2199              	 .cfi_def_cfa_register 13
 2200              	 
 2201 00d0 90BD     	 pop {r4,r7,pc}
 2202              	.L137:
 2203 00d2 00BF     	 .align 2
 2204              	.L136:
 2205 00d4 00000000 	 .word AUTOMATION_EH_ErrorLogbook
 2206 00d8 00000000 	 .word AUTOMATION_EH_ReportingInterface
 2207              	 .cfi_endproc
 2208              	.LFE152:
 2210              	 .section .text.AUTOMATION_EH_ReadLogbook,"ax",%progbits
 2211              	 .align 2
 2212              	 .global AUTOMATION_EH_ReadLogbook
 2213              	 .thumb
 2214              	 .thumb_func
 2216              	AUTOMATION_EH_ReadLogbook:
 2217              	.LFB153:
 737:../Dave/Generated/AUTOMATION/automation.c **** 
 738:../Dave/Generated/AUTOMATION/automation.c **** /**
 739:../Dave/Generated/AUTOMATION/automation.c ****  * This API will read error entry from Error Log book
 740:../Dave/Generated/AUTOMATION/automation.c ****  * Critical errors     - Read from Log book Critical section     - Overwrite not possible
 741:../Dave/Generated/AUTOMATION/automation.c ****  * Info/Warning errors - Read from Log book Info/Warning section - Overwrite possible
 742:../Dave/Generated/AUTOMATION/automation.c ****  */
 743:../Dave/Generated/AUTOMATION/automation.c **** AUTOMATION_STATUS_t AUTOMATION_EH_ReadLogbook(AUTOMATION_EH_LOGBOOK_ENTRY_t* error_ptr,
 744:../Dave/Generated/AUTOMATION/automation.c ****     AUTOMATION_EH_LOGBOOK_SECTIONS_t section)
 745:../Dave/Generated/AUTOMATION/automation.c **** {
 2218              	 .loc 1 745 0
 2219              	 .cfi_startproc
 2220              	 
 2221              	 
 2222              	 
 2223 0000 80B4     	 push {r7}
 2224              	.LCFI98:
 2225              	 .cfi_def_cfa_offset 4
 2226              	 .cfi_offset 7,-4
 2227 0002 85B0     	 sub sp,sp,#20
 2228              	.LCFI99:
 2229              	 .cfi_def_cfa_offset 24
 2230 0004 00AF     	 add r7,sp,#0
 2231              	.LCFI100:
 2232              	 .cfi_def_cfa_register 7
 2233 0006 7860     	 str r0,[r7,#4]
 2234 0008 0B46     	 mov r3,r1
 2235 000a FB70     	 strb r3,[r7,#3]
 746:../Dave/Generated/AUTOMATION/automation.c ****   AUTOMATION_STATUS_t status;
 747:../Dave/Generated/AUTOMATION/automation.c ****   AUTOMATION_EH_LOGBOOK_ENTRY_t * logbook;
 748:../Dave/Generated/AUTOMATION/automation.c **** 
 749:../Dave/Generated/AUTOMATION/automation.c ****   if (section == AUTOMATION_EH_LOGBOOK_SECTIONS_CS_LOGBOOK)
 2236              	 .loc 1 749 0
 2237 000c FB78     	 ldrb r3,[r7,#3]
 2238 000e 002B     	 cmp r3,#0
 2239 0010 23D1     	 bne .L139
 750:../Dave/Generated/AUTOMATION/automation.c ****   {
 751:../Dave/Generated/AUTOMATION/automation.c ****     /* Read request for error log book critical section */
 752:../Dave/Generated/AUTOMATION/automation.c ****     if (AUTOMATION_EH_ErrorLogbook.cs_data_length > 0U)
 2240              	 .loc 1 752 0
 2241 0012 324B     	 ldr r3,.L148
 2242 0014 9B78     	 ldrb r3,[r3,#2]
 2243 0016 002B     	 cmp r3,#0
 2244 0018 1AD0     	 beq .L140
 753:../Dave/Generated/AUTOMATION/automation.c ****     {
 754:../Dave/Generated/AUTOMATION/automation.c ****       /* Error entries are available */
 755:../Dave/Generated/AUTOMATION/automation.c ****       logbook = &AUTOMATION_EH_ErrorLogbook.error_logbook_ptr[AUTOMATION_EH_ErrorLogbook.cs_read_in
 2245              	 .loc 1 755 0
 2246 001a 304B     	 ldr r3,.L148
 2247 001c 9A68     	 ldr r2,[r3,#8]
 2248 001e 2F4B     	 ldr r3,.L148
 2249 0020 1B78     	 ldrb r3,[r3]
 2250 0022 591C     	 adds r1,r3,#1
 2251 0024 C8B2     	 uxtb r0,r1
 2252 0026 2D49     	 ldr r1,.L148
 2253 0028 0870     	 strb r0,[r1]
 2254 002a DB00     	 lsls r3,r3,#3
 2255 002c 1344     	 add r3,r3,r2
 2256 002e BB60     	 str r3,[r7,#8]
 756:../Dave/Generated/AUTOMATION/automation.c ****       if (AUTOMATION_EH_ErrorLogbook.cs_read_index == AUTOMATION_EH_LOGBOOK_CS_SIZE)
 2257              	 .loc 1 756 0
 2258 0030 2A4B     	 ldr r3,.L148
 2259 0032 1B78     	 ldrb r3,[r3]
 2260 0034 0A2B     	 cmp r3,#10
 2261 0036 02D1     	 bne .L141
 757:../Dave/Generated/AUTOMATION/automation.c ****       {
 758:../Dave/Generated/AUTOMATION/automation.c ****         /* Log book Critical section ring buffer */
 759:../Dave/Generated/AUTOMATION/automation.c ****         AUTOMATION_EH_ErrorLogbook.cs_read_index = 0U;
 2262              	 .loc 1 759 0
 2263 0038 284B     	 ldr r3,.L148
 2264 003a 0022     	 movs r2,#0
 2265 003c 1A70     	 strb r2,[r3]
 2266              	.L141:
 760:../Dave/Generated/AUTOMATION/automation.c ****       }
 761:../Dave/Generated/AUTOMATION/automation.c ****       AUTOMATION_EH_ErrorLogbook.cs_data_length--;
 2267              	 .loc 1 761 0
 2268 003e 274B     	 ldr r3,.L148
 2269 0040 9B78     	 ldrb r3,[r3,#2]
 2270 0042 013B     	 subs r3,r3,#1
 2271 0044 DAB2     	 uxtb r2,r3
 2272 0046 254B     	 ldr r3,.L148
 2273 0048 9A70     	 strb r2,[r3,#2]
 762:../Dave/Generated/AUTOMATION/automation.c ****       status = AUTOMATION_STATUS_SUCCESS;
 2274              	 .loc 1 762 0
 2275 004a 0023     	 movs r3,#0
 2276 004c FB73     	 strb r3,[r7,#15]
 2277 004e 27E0     	 b .L143
 2278              	.L140:
 763:../Dave/Generated/AUTOMATION/automation.c ****     }
 764:../Dave/Generated/AUTOMATION/automation.c ****     else
 765:../Dave/Generated/AUTOMATION/automation.c ****     {
 766:../Dave/Generated/AUTOMATION/automation.c ****       /* No more errors to read */
 767:../Dave/Generated/AUTOMATION/automation.c ****       status = AUTOMATION_STATUS_LOGBOOK_EMPTY;
 2279              	 .loc 1 767 0
 2280 0050 0B23     	 movs r3,#11
 2281 0052 FB73     	 strb r3,[r7,#15]
 768:../Dave/Generated/AUTOMATION/automation.c ****       logbook = NULL;
 2282              	 .loc 1 768 0
 2283 0054 0023     	 movs r3,#0
 2284 0056 BB60     	 str r3,[r7,#8]
 2285 0058 22E0     	 b .L143
 2286              	.L139:
 769:../Dave/Generated/AUTOMATION/automation.c ****     }
 770:../Dave/Generated/AUTOMATION/automation.c ****   }
 771:../Dave/Generated/AUTOMATION/automation.c ****   else
 772:../Dave/Generated/AUTOMATION/automation.c ****   {
 773:../Dave/Generated/AUTOMATION/automation.c ****     /* Read request for error log book Info/Warning section */
 774:../Dave/Generated/AUTOMATION/automation.c ****     if (AUTOMATION_EH_ErrorLogbook.info_data_length > 0U)
 2287              	 .loc 1 774 0
 2288 005a 204B     	 ldr r3,.L148
 2289 005c 5B79     	 ldrb r3,[r3,#5]
 2290 005e 002B     	 cmp r3,#0
 2291 0060 1AD0     	 beq .L144
 775:../Dave/Generated/AUTOMATION/automation.c ****     {
 776:../Dave/Generated/AUTOMATION/automation.c ****       logbook = &AUTOMATION_EH_ErrorLogbook.error_logbook_ptr[AUTOMATION_EH_ErrorLogbook.info_read_
 2292              	 .loc 1 776 0
 2293 0062 1E4B     	 ldr r3,.L148
 2294 0064 9A68     	 ldr r2,[r3,#8]
 2295 0066 1D4B     	 ldr r3,.L148
 2296 0068 DB78     	 ldrb r3,[r3,#3]
 2297 006a 591C     	 adds r1,r3,#1
 2298 006c C8B2     	 uxtb r0,r1
 2299 006e 1B49     	 ldr r1,.L148
 2300 0070 C870     	 strb r0,[r1,#3]
 2301 0072 DB00     	 lsls r3,r3,#3
 2302 0074 1344     	 add r3,r3,r2
 2303 0076 BB60     	 str r3,[r7,#8]
 777:../Dave/Generated/AUTOMATION/automation.c ****       if (AUTOMATION_EH_ErrorLogbook.info_read_index == ((uint32_t)AUTOMATION_EH_LOGBOOK_INFO_SIZE 
 2304              	 .loc 1 777 0
 2305 0078 184B     	 ldr r3,.L148
 2306 007a DB78     	 ldrb r3,[r3,#3]
 2307 007c 142B     	 cmp r3,#20
 2308 007e 02D1     	 bne .L145
 778:../Dave/Generated/AUTOMATION/automation.c ****       {
 779:../Dave/Generated/AUTOMATION/automation.c ****         /* Log book info section ring buffer */
 780:../Dave/Generated/AUTOMATION/automation.c ****         AUTOMATION_EH_ErrorLogbook.info_read_index = AUTOMATION_EH_LOGBOOK_CS_SIZE;
 2309              	 .loc 1 780 0
 2310 0080 164B     	 ldr r3,.L148
 2311 0082 0A22     	 movs r2,#10
 2312 0084 DA70     	 strb r2,[r3,#3]
 2313              	.L145:
 781:../Dave/Generated/AUTOMATION/automation.c ****       }
 782:../Dave/Generated/AUTOMATION/automation.c ****       AUTOMATION_EH_ErrorLogbook.info_data_length--;
 2314              	 .loc 1 782 0
 2315 0086 154B     	 ldr r3,.L148
 2316 0088 5B79     	 ldrb r3,[r3,#5]
 2317 008a 013B     	 subs r3,r3,#1
 2318 008c DAB2     	 uxtb r2,r3
 2319 008e 134B     	 ldr r3,.L148
 2320 0090 5A71     	 strb r2,[r3,#5]
 783:../Dave/Generated/AUTOMATION/automation.c ****       status = AUTOMATION_STATUS_SUCCESS;
 2321              	 .loc 1 783 0
 2322 0092 0023     	 movs r3,#0
 2323 0094 FB73     	 strb r3,[r7,#15]
 2324 0096 03E0     	 b .L143
 2325              	.L144:
 784:../Dave/Generated/AUTOMATION/automation.c ****     }
 785:../Dave/Generated/AUTOMATION/automation.c ****     else
 786:../Dave/Generated/AUTOMATION/automation.c ****     {
 787:../Dave/Generated/AUTOMATION/automation.c ****       /* No more errors to read */
 788:../Dave/Generated/AUTOMATION/automation.c ****       status = AUTOMATION_STATUS_LOGBOOK_EMPTY;
 2326              	 .loc 1 788 0
 2327 0098 0B23     	 movs r3,#11
 2328 009a FB73     	 strb r3,[r7,#15]
 789:../Dave/Generated/AUTOMATION/automation.c ****       logbook = NULL;
 2329              	 .loc 1 789 0
 2330 009c 0023     	 movs r3,#0
 2331 009e BB60     	 str r3,[r7,#8]
 2332              	.L143:
 790:../Dave/Generated/AUTOMATION/automation.c ****     }
 791:../Dave/Generated/AUTOMATION/automation.c ****   }
 792:../Dave/Generated/AUTOMATION/automation.c **** 
 793:../Dave/Generated/AUTOMATION/automation.c ****   if (logbook != NULL)
 2333              	 .loc 1 793 0
 2334 00a0 BB68     	 ldr r3,[r7,#8]
 2335 00a2 002B     	 cmp r3,#0
 2336 00a4 13D0     	 beq .L146
 794:../Dave/Generated/AUTOMATION/automation.c ****   {
 795:../Dave/Generated/AUTOMATION/automation.c ****     error_ptr->app_id = logbook->app_id;
 2337              	 .loc 1 795 0
 2338 00a6 BB68     	 ldr r3,[r7,#8]
 2339 00a8 1A79     	 ldrb r2,[r3,#4]
 2340 00aa 7B68     	 ldr r3,[r7,#4]
 2341 00ac 1A71     	 strb r2,[r3,#4]
 796:../Dave/Generated/AUTOMATION/automation.c ****     error_ptr->error_id = logbook->error_id;
 2342              	 .loc 1 796 0
 2343 00ae BB68     	 ldr r3,[r7,#8]
 2344 00b0 5A79     	 ldrb r2,[r3,#5]
 2345 00b2 7B68     	 ldr r3,[r7,#4]
 2346 00b4 5A71     	 strb r2,[r3,#5]
 797:../Dave/Generated/AUTOMATION/automation.c ****     error_ptr->error_severity = logbook->error_severity;
 2347              	 .loc 1 797 0
 2348 00b6 BB68     	 ldr r3,[r7,#8]
 2349 00b8 9A79     	 ldrb r2,[r3,#6]
 2350 00ba 7B68     	 ldr r3,[r7,#4]
 2351 00bc 9A71     	 strb r2,[r3,#6]
 798:../Dave/Generated/AUTOMATION/automation.c ****     error_ptr->error_status = logbook->error_status;
 2352              	 .loc 1 798 0
 2353 00be BB68     	 ldr r3,[r7,#8]
 2354 00c0 DA79     	 ldrb r2,[r3,#7]
 2355 00c2 7B68     	 ldr r3,[r7,#4]
 2356 00c4 DA71     	 strb r2,[r3,#7]
 799:../Dave/Generated/AUTOMATION/automation.c ****     error_ptr->timestamp = logbook->timestamp;
 2357              	 .loc 1 799 0
 2358 00c6 BB68     	 ldr r3,[r7,#8]
 2359 00c8 1A68     	 ldr r2,[r3]
 2360 00ca 7B68     	 ldr r3,[r7,#4]
 2361 00cc 1A60     	 str r2,[r3]
 2362              	.L146:
 800:../Dave/Generated/AUTOMATION/automation.c ****   }
 801:../Dave/Generated/AUTOMATION/automation.c **** 
 802:../Dave/Generated/AUTOMATION/automation.c ****   return status;
 2363              	 .loc 1 802 0
 2364 00ce FB7B     	 ldrb r3,[r7,#15]
 803:../Dave/Generated/AUTOMATION/automation.c **** }
 2365              	 .loc 1 803 0
 2366 00d0 1846     	 mov r0,r3
 2367 00d2 1437     	 adds r7,r7,#20
 2368              	.LCFI101:
 2369              	 .cfi_def_cfa_offset 4
 2370 00d4 BD46     	 mov sp,r7
 2371              	.LCFI102:
 2372              	 .cfi_def_cfa_register 13
 2373              	 
 2374 00d6 5DF8047B 	 ldr r7,[sp],#4
 2375              	.LCFI103:
 2376              	 .cfi_restore 7
 2377              	 .cfi_def_cfa_offset 0
 2378 00da 7047     	 bx lr
 2379              	.L149:
 2380              	 .align 2
 2381              	.L148:
 2382 00dc 00000000 	 .word AUTOMATION_EH_ErrorLogbook
 2383              	 .cfi_endproc
 2384              	.LFE153:
 2386              	 .section .text.AUTOMATION_FB_RegisterFunctionBlock,"ax",%progbits
 2387              	 .align 2
 2388              	 .global AUTOMATION_FB_RegisterFunctionBlock
 2389              	 .thumb
 2390              	 .thumb_func
 2392              	AUTOMATION_FB_RegisterFunctionBlock:
 2393              	.LFB154:
 804:../Dave/Generated/AUTOMATION/automation.c **** #endif
 805:../Dave/Generated/AUTOMATION/automation.c **** 
 806:../Dave/Generated/AUTOMATION/automation.c **** 
 807:../Dave/Generated/AUTOMATION/automation.c **** /* register function block pointer */
 808:../Dave/Generated/AUTOMATION/automation.c **** AUTOMATION_STATUS_t AUTOMATION_FB_RegisterFunctionBlock(AUTOMATION_FB_HANDLE_t* const frame)
 809:../Dave/Generated/AUTOMATION/automation.c **** {
 2394              	 .loc 1 809 0
 2395              	 .cfi_startproc
 2396              	 
 2397              	 
 2398              	 
 2399 0000 80B4     	 push {r7}
 2400              	.LCFI104:
 2401              	 .cfi_def_cfa_offset 4
 2402              	 .cfi_offset 7,-4
 2403 0002 85B0     	 sub sp,sp,#20
 2404              	.LCFI105:
 2405              	 .cfi_def_cfa_offset 24
 2406 0004 00AF     	 add r7,sp,#0
 2407              	.LCFI106:
 2408              	 .cfi_def_cfa_register 7
 2409 0006 7860     	 str r0,[r7,#4]
 810:../Dave/Generated/AUTOMATION/automation.c ****   AUTOMATION_STATUS_t status;
 811:../Dave/Generated/AUTOMATION/automation.c ****   if (AUTOMATION_Handle.fb_id >= (AUTOMATION_FB_APP_FUNCTION_BLOCKS + AUTOMATION_FB_ENABLED_FUNCTIO
 2410              	 .loc 1 811 0
 2411 0008 0D4B     	 ldr r3,.L154
 2412 000a DB7B     	 ldrb r3,[r3,#15]
 2413 000c 022B     	 cmp r3,#2
 2414 000e 02D9     	 bls .L151
 812:../Dave/Generated/AUTOMATION/automation.c ****   {
 813:../Dave/Generated/AUTOMATION/automation.c ****     status = AUTOMATION_STATUS_NUM_FB_EXCEEDED;
 2415              	 .loc 1 813 0
 2416 0010 0723     	 movs r3,#7
 2417 0012 FB73     	 strb r3,[r7,#15]
 2418 0014 0CE0     	 b .L152
 2419              	.L151:
 814:../Dave/Generated/AUTOMATION/automation.c ****   }
 815:../Dave/Generated/AUTOMATION/automation.c ****   else
 816:../Dave/Generated/AUTOMATION/automation.c ****   {
 817:../Dave/Generated/AUTOMATION/automation.c ****     AUTOMATION_FB_Table[AUTOMATION_Handle.fb_id++] = frame;
 2420              	 .loc 1 817 0
 2421 0016 0A4B     	 ldr r3,.L154
 2422 0018 DB7B     	 ldrb r3,[r3,#15]
 2423 001a 5A1C     	 adds r2,r3,#1
 2424 001c D1B2     	 uxtb r1,r2
 2425 001e 084A     	 ldr r2,.L154
 2426 0020 D173     	 strb r1,[r2,#15]
 2427 0022 1946     	 mov r1,r3
 2428 0024 074A     	 ldr r2,.L154+4
 2429 0026 7B68     	 ldr r3,[r7,#4]
 2430 0028 42F82130 	 str r3,[r2,r1,lsl#2]
 818:../Dave/Generated/AUTOMATION/automation.c ****     status = AUTOMATION_STATUS_SUCCESS;
 2431              	 .loc 1 818 0
 2432 002c 0023     	 movs r3,#0
 2433 002e FB73     	 strb r3,[r7,#15]
 2434              	.L152:
 819:../Dave/Generated/AUTOMATION/automation.c ****   }
 820:../Dave/Generated/AUTOMATION/automation.c ****   return status;
 2435              	 .loc 1 820 0
 2436 0030 FB7B     	 ldrb r3,[r7,#15]
 821:../Dave/Generated/AUTOMATION/automation.c **** }
 2437              	 .loc 1 821 0
 2438 0032 1846     	 mov r0,r3
 2439 0034 1437     	 adds r7,r7,#20
 2440              	.LCFI107:
 2441              	 .cfi_def_cfa_offset 4
 2442 0036 BD46     	 mov sp,r7
 2443              	.LCFI108:
 2444              	 .cfi_def_cfa_register 13
 2445              	 
 2446 0038 5DF8047B 	 ldr r7,[sp],#4
 2447              	.LCFI109:
 2448              	 .cfi_restore 7
 2449              	 .cfi_def_cfa_offset 0
 2450 003c 7047     	 bx lr
 2451              	.L155:
 2452 003e 00BF     	 .align 2
 2453              	.L154:
 2454 0040 00000000 	 .word AUTOMATION_0
 2455 0044 00000000 	 .word AUTOMATION_FB_Table
 2456              	 .cfi_endproc
 2457              	.LFE154:
 2459              	 .section .text.AUTOMATION_FB_AddConnectionEntry,"ax",%progbits
 2460              	 .align 2
 2461              	 .global AUTOMATION_FB_AddConnectionEntry
 2462              	 .thumb
 2463              	 .thumb_func
 2465              	AUTOMATION_FB_AddConnectionEntry:
 2466              	.LFB155:
 822:../Dave/Generated/AUTOMATION/automation.c **** 
 823:../Dave/Generated/AUTOMATION/automation.c **** /*
 824:../Dave/Generated/AUTOMATION/automation.c ****  * Add the connection entries in the function block connect table
 825:../Dave/Generated/AUTOMATION/automation.c ****  */
 826:../Dave/Generated/AUTOMATION/automation.c **** AUTOMATION_STATUS_t AUTOMATION_FB_AddConnectionEntry(AUTOMATION_FB_HANDLE_t* const source_fb,
 827:../Dave/Generated/AUTOMATION/automation.c ****                                                      const uint8_t out_signal_num,
 828:../Dave/Generated/AUTOMATION/automation.c ****                                                      AUTOMATION_FB_HANDLE_t* const destination_fb,
 829:../Dave/Generated/AUTOMATION/automation.c ****                                                      const uint8_t in_signal_num)
 830:../Dave/Generated/AUTOMATION/automation.c **** {
 2467              	 .loc 1 830 0
 2468              	 .cfi_startproc
 2469              	 
 2470              	 
 2471              	 
 2472 0000 80B4     	 push {r7}
 2473              	.LCFI110:
 2474              	 .cfi_def_cfa_offset 4
 2475              	 .cfi_offset 7,-4
 2476 0002 87B0     	 sub sp,sp,#28
 2477              	.LCFI111:
 2478              	 .cfi_def_cfa_offset 32
 2479 0004 00AF     	 add r7,sp,#0
 2480              	.LCFI112:
 2481              	 .cfi_def_cfa_register 7
 2482 0006 F860     	 str r0,[r7,#12]
 2483 0008 7A60     	 str r2,[r7,#4]
 2484 000a 1A46     	 mov r2,r3
 2485 000c 0B46     	 mov r3,r1
 2486 000e FB72     	 strb r3,[r7,#11]
 2487 0010 1346     	 mov r3,r2
 2488 0012 BB72     	 strb r3,[r7,#10]
 831:../Dave/Generated/AUTOMATION/automation.c ****   AUTOMATION_STATUS_t status = AUTOMATION_STATUS_SUCCESS;
 2489              	 .loc 1 831 0
 2490 0014 0023     	 movs r3,#0
 2491 0016 FB75     	 strb r3,[r7,#23]
 832:../Dave/Generated/AUTOMATION/automation.c ****   if (0U == AUTOMATION_Handle.fb_connect_table_data_length)
 2492              	 .loc 1 832 0
 2493 0018 274B     	 ldr r3,.L161
 2494 001a DB7C     	 ldrb r3,[r3,#19]
 2495 001c 002B     	 cmp r3,#0
 2496 001e 02D1     	 bne .L157
 833:../Dave/Generated/AUTOMATION/automation.c ****   {
 834:../Dave/Generated/AUTOMATION/automation.c ****     status = AUTOMATION_STATUS_CONNECT_TABLE_OVERFLOW;
 2497              	 .loc 1 834 0
 2498 0020 0823     	 movs r3,#8
 2499 0022 FB75     	 strb r3,[r7,#23]
 2500 0024 40E0     	 b .L158
 2501              	.L157:
 835:../Dave/Generated/AUTOMATION/automation.c **** 
 836:../Dave/Generated/AUTOMATION/automation.c ****   }
 837:../Dave/Generated/AUTOMATION/automation.c ****   else
 838:../Dave/Generated/AUTOMATION/automation.c ****   {
 839:../Dave/Generated/AUTOMATION/automation.c ****     if ((uint8_t) AUTOMATION_FB_CONNECT_TABLE_SIZE <= AUTOMATION_Handle.fb_connect_table_write_inde
 2502              	 .loc 1 839 0
 2503 0026 244B     	 ldr r3,.L161
 2504 0028 5B7C     	 ldrb r3,[r3,#17]
 2505 002a 112B     	 cmp r3,#17
 2506 002c 02D9     	 bls .L159
 840:../Dave/Generated/AUTOMATION/automation.c ****     {
 841:../Dave/Generated/AUTOMATION/automation.c ****       AUTOMATION_Handle.fb_connect_table_write_index = 0U;
 2507              	 .loc 1 841 0
 2508 002e 224B     	 ldr r3,.L161
 2509 0030 0022     	 movs r2,#0
 2510 0032 5A74     	 strb r2,[r3,#17]
 2511              	.L159:
 842:../Dave/Generated/AUTOMATION/automation.c ****     }
 843:../Dave/Generated/AUTOMATION/automation.c ****     AUTOMATION_FB_Connect_Table[AUTOMATION_Handle.fb_connect_table_write_index].source_fb = source_
 2512              	 .loc 1 843 0
 2513 0034 204B     	 ldr r3,.L161
 2514 0036 5B7C     	 ldrb r3,[r3,#17]
 2515 0038 1946     	 mov r1,r3
 2516 003a 204A     	 ldr r2,.L161+4
 2517 003c 0B46     	 mov r3,r1
 2518 003e 5B00     	 lsls r3,r3,#1
 2519 0040 0B44     	 add r3,r3,r1
 2520 0042 9B00     	 lsls r3,r3,#2
 2521 0044 1344     	 add r3,r3,r2
 2522 0046 FA68     	 ldr r2,[r7,#12]
 2523 0048 1A60     	 str r2,[r3]
 844:../Dave/Generated/AUTOMATION/automation.c ****     AUTOMATION_FB_Connect_Table[AUTOMATION_Handle.fb_connect_table_write_index].out_signal_num = ou
 2524              	 .loc 1 844 0
 2525 004a 1B4B     	 ldr r3,.L161
 2526 004c 5B7C     	 ldrb r3,[r3,#17]
 2527 004e 1946     	 mov r1,r3
 2528 0050 1A4A     	 ldr r2,.L161+4
 2529 0052 0B46     	 mov r3,r1
 2530 0054 5B00     	 lsls r3,r3,#1
 2531 0056 0B44     	 add r3,r3,r1
 2532 0058 9B00     	 lsls r3,r3,#2
 2533 005a 1344     	 add r3,r3,r2
 2534 005c 0833     	 adds r3,r3,#8
 2535 005e FA7A     	 ldrb r2,[r7,#11]
 2536 0060 1A70     	 strb r2,[r3]
 845:../Dave/Generated/AUTOMATION/automation.c ****     AUTOMATION_FB_Connect_Table[AUTOMATION_Handle.fb_connect_table_write_index].destination_fb = de
 2537              	 .loc 1 845 0
 2538 0062 154B     	 ldr r3,.L161
 2539 0064 5B7C     	 ldrb r3,[r3,#17]
 2540 0066 1946     	 mov r1,r3
 2541 0068 144A     	 ldr r2,.L161+4
 2542 006a 0B46     	 mov r3,r1
 2543 006c 5B00     	 lsls r3,r3,#1
 2544 006e 0B44     	 add r3,r3,r1
 2545 0070 9B00     	 lsls r3,r3,#2
 2546 0072 1344     	 add r3,r3,r2
 2547 0074 7A68     	 ldr r2,[r7,#4]
 2548 0076 5A60     	 str r2,[r3,#4]
 846:../Dave/Generated/AUTOMATION/automation.c ****     AUTOMATION_FB_Connect_Table[AUTOMATION_Handle.fb_connect_table_write_index].in_signal_num = in_
 2549              	 .loc 1 846 0
 2550 0078 0F4B     	 ldr r3,.L161
 2551 007a 5B7C     	 ldrb r3,[r3,#17]
 2552 007c 1946     	 mov r1,r3
 2553 007e 0F4A     	 ldr r2,.L161+4
 2554 0080 0B46     	 mov r3,r1
 2555 0082 5B00     	 lsls r3,r3,#1
 2556 0084 0B44     	 add r3,r3,r1
 2557 0086 9B00     	 lsls r3,r3,#2
 2558 0088 1344     	 add r3,r3,r2
 2559 008a 0833     	 adds r3,r3,#8
 2560 008c BA7A     	 ldrb r2,[r7,#10]
 2561 008e 5A70     	 strb r2,[r3,#1]
 847:../Dave/Generated/AUTOMATION/automation.c **** 
 848:../Dave/Generated/AUTOMATION/automation.c ****     AUTOMATION_Handle.fb_connect_table_write_index++;
 2562              	 .loc 1 848 0
 2563 0090 094B     	 ldr r3,.L161
 2564 0092 5B7C     	 ldrb r3,[r3,#17]
 2565 0094 0133     	 adds r3,r3,#1
 2566 0096 DAB2     	 uxtb r2,r3
 2567 0098 074B     	 ldr r3,.L161
 2568 009a 5A74     	 strb r2,[r3,#17]
 849:../Dave/Generated/AUTOMATION/automation.c ****     AUTOMATION_Handle.fb_connect_table_data_length--;
 2569              	 .loc 1 849 0
 2570 009c 064B     	 ldr r3,.L161
 2571 009e DB7C     	 ldrb r3,[r3,#19]
 2572 00a0 013B     	 subs r3,r3,#1
 2573 00a2 DAB2     	 uxtb r2,r3
 2574 00a4 044B     	 ldr r3,.L161
 2575 00a6 DA74     	 strb r2,[r3,#19]
 2576              	.L158:
 850:../Dave/Generated/AUTOMATION/automation.c ****   }
 851:../Dave/Generated/AUTOMATION/automation.c ****   return (status);
 2577              	 .loc 1 851 0
 2578 00a8 FB7D     	 ldrb r3,[r7,#23]
 852:../Dave/Generated/AUTOMATION/automation.c **** }
 2579              	 .loc 1 852 0
 2580 00aa 1846     	 mov r0,r3
 2581 00ac 1C37     	 adds r7,r7,#28
 2582              	.LCFI113:
 2583              	 .cfi_def_cfa_offset 4
 2584 00ae BD46     	 mov sp,r7
 2585              	.LCFI114:
 2586              	 .cfi_def_cfa_register 13
 2587              	 
 2588 00b0 5DF8047B 	 ldr r7,[sp],#4
 2589              	.LCFI115:
 2590              	 .cfi_restore 7
 2591              	 .cfi_def_cfa_offset 0
 2592 00b4 7047     	 bx lr
 2593              	.L162:
 2594 00b6 00BF     	 .align 2
 2595              	.L161:
 2596 00b8 00000000 	 .word AUTOMATION_0
 2597 00bc 00000000 	 .word AUTOMATION_FB_Connect_Table
 2598              	 .cfi_endproc
 2599              	.LFE155:
 2601              	 .section .text.AUTOMATION_FB_Connect,"ax",%progbits
 2602              	 .align 2
 2603              	 .global AUTOMATION_FB_Connect
 2604              	 .thumb
 2605              	 .thumb_func
 2607              	AUTOMATION_FB_Connect:
 2608              	.LFB156:
 853:../Dave/Generated/AUTOMATION/automation.c **** 
 854:../Dave/Generated/AUTOMATION/automation.c **** /*
 855:../Dave/Generated/AUTOMATION/automation.c ****  * Connect the the function block connection entries
 856:../Dave/Generated/AUTOMATION/automation.c ****  */
 857:../Dave/Generated/AUTOMATION/automation.c **** void AUTOMATION_FB_Connect()
 858:../Dave/Generated/AUTOMATION/automation.c **** {
 2609              	 .loc 1 858 0
 2610              	 .cfi_startproc
 2611              	 
 2612              	 
 2613              	 
 2614 0000 90B4     	 push {r4,r7}
 2615              	.LCFI116:
 2616              	 .cfi_def_cfa_offset 8
 2617              	 .cfi_offset 4,-8
 2618              	 .cfi_offset 7,-4
 2619 0002 82B0     	 sub sp,sp,#8
 2620              	.LCFI117:
 2621              	 .cfi_def_cfa_offset 16
 2622 0004 00AF     	 add r7,sp,#0
 2623              	.LCFI118:
 2624              	 .cfi_def_cfa_register 7
 859:../Dave/Generated/AUTOMATION/automation.c ****   uint8_t read_index = AUTOMATION_Handle.fb_connect_table_read_index;
 2625              	 .loc 1 859 0
 2626 0006 244B     	 ldr r3,.L166
 2627 0008 9B7C     	 ldrb r3,[r3,#18]
 2628 000a FB71     	 strb r3,[r7,#7]
 860:../Dave/Generated/AUTOMATION/automation.c **** 
 861:../Dave/Generated/AUTOMATION/automation.c ****   while (AUTOMATION_Handle.fb_connect_table_data_length != AUTOMATION_FB_CONNECT_TABLE_SIZE)
 2629              	 .loc 1 861 0
 2630 000c 38E0     	 b .L164
 2631              	.L165:
 862:../Dave/Generated/AUTOMATION/automation.c ****   {
 863:../Dave/Generated/AUTOMATION/automation.c ****     *AUTOMATION_FB_Connect_Table[read_index].destination_fb->input_ptr[AUTOMATION_FB_Connect_Table[
 2632              	 .loc 1 863 0
 2633 000e FA79     	 ldrb r2,[r7,#7]
 2634 0010 2249     	 ldr r1,.L166+4
 2635 0012 1346     	 mov r3,r2
 2636 0014 5B00     	 lsls r3,r3,#1
 2637 0016 1344     	 add r3,r3,r2
 2638 0018 9B00     	 lsls r3,r3,#2
 2639 001a 0B44     	 add r3,r3,r1
 2640 001c 5B68     	 ldr r3,[r3,#4]
 2641 001e 1968     	 ldr r1,[r3]
 2642 0020 FA79     	 ldrb r2,[r7,#7]
 2643 0022 1E48     	 ldr r0,.L166+4
 2644 0024 1346     	 mov r3,r2
 2645 0026 5B00     	 lsls r3,r3,#1
 2646 0028 1344     	 add r3,r3,r2
 2647 002a 9B00     	 lsls r3,r3,#2
 2648 002c 0344     	 add r3,r3,r0
 2649 002e 0833     	 adds r3,r3,#8
 2650 0030 5B78     	 ldrb r3,[r3,#1]
 2651 0032 9B00     	 lsls r3,r3,#2
 2652 0034 0B44     	 add r3,r3,r1
 2653 0036 1968     	 ldr r1,[r3]
 864:../Dave/Generated/AUTOMATION/automation.c ****         AUTOMATION_FB_Connect_Table[read_index].source_fb->output_ptr[AUTOMATION_FB_Connect_Table[r
 2654              	 .loc 1 864 0
 2655 0038 FA79     	 ldrb r2,[r7,#7]
 2656 003a 1848     	 ldr r0,.L166+4
 2657 003c 1346     	 mov r3,r2
 2658 003e 5B00     	 lsls r3,r3,#1
 2659 0040 1344     	 add r3,r3,r2
 2660 0042 9B00     	 lsls r3,r3,#2
 2661 0044 0344     	 add r3,r3,r0
 2662 0046 1B68     	 ldr r3,[r3]
 2663 0048 5868     	 ldr r0,[r3,#4]
 2664 004a FA79     	 ldrb r2,[r7,#7]
 2665 004c 134C     	 ldr r4,.L166+4
 2666 004e 1346     	 mov r3,r2
 2667 0050 5B00     	 lsls r3,r3,#1
 2668 0052 1344     	 add r3,r3,r2
 2669 0054 9B00     	 lsls r3,r3,#2
 2670 0056 2344     	 add r3,r3,r4
 2671 0058 0833     	 adds r3,r3,#8
 2672 005a 1B78     	 ldrb r3,[r3]
 2673 005c 9B00     	 lsls r3,r3,#2
 2674 005e 0344     	 add r3,r3,r0
 2675 0060 1B68     	 ldr r3,[r3]
 863:../Dave/Generated/AUTOMATION/automation.c ****         AUTOMATION_FB_Connect_Table[read_index].source_fb->output_ptr[AUTOMATION_FB_Connect_Table[r
 2676              	 .loc 1 863 0
 2677 0062 0B60     	 str r3,[r1]
 865:../Dave/Generated/AUTOMATION/automation.c ****     read_index++;
 2678              	 .loc 1 865 0
 2679 0064 FB79     	 ldrb r3,[r7,#7]
 2680 0066 0133     	 adds r3,r3,#1
 2681 0068 FB71     	 strb r3,[r7,#7]
 866:../Dave/Generated/AUTOMATION/automation.c ****     AUTOMATION_Handle.fb_connect_table_data_length++;
 2682              	 .loc 1 866 0
 2683 006a 0B4B     	 ldr r3,.L166
 2684 006c DB7C     	 ldrb r3,[r3,#19]
 2685 006e 0133     	 adds r3,r3,#1
 2686 0070 DAB2     	 uxtb r2,r3
 2687 0072 094B     	 ldr r3,.L166
 2688 0074 DA74     	 strb r2,[r3,#19]
 867:../Dave/Generated/AUTOMATION/automation.c ****     if ((uint8_t) AUTOMATION_FB_CONNECT_TABLE_SIZE <= read_index)
 2689              	 .loc 1 867 0
 2690 0076 FB79     	 ldrb r3,[r7,#7]
 2691 0078 112B     	 cmp r3,#17
 2692 007a 01D9     	 bls .L164
 868:../Dave/Generated/AUTOMATION/automation.c ****     {
 869:../Dave/Generated/AUTOMATION/automation.c ****       read_index = 0U;
 2693              	 .loc 1 869 0
 2694 007c 0023     	 movs r3,#0
 2695 007e FB71     	 strb r3,[r7,#7]
 2696              	.L164:
 861:../Dave/Generated/AUTOMATION/automation.c ****   {
 2697              	 .loc 1 861 0
 2698 0080 054B     	 ldr r3,.L166
 2699 0082 DB7C     	 ldrb r3,[r3,#19]
 2700 0084 122B     	 cmp r3,#18
 2701 0086 C2D1     	 bne .L165
 870:../Dave/Generated/AUTOMATION/automation.c ****     }
 871:../Dave/Generated/AUTOMATION/automation.c ****   }
 872:../Dave/Generated/AUTOMATION/automation.c ****   AUTOMATION_Handle.fb_connect_table_read_index = read_index;
 2702              	 .loc 1 872 0
 2703 0088 034A     	 ldr r2,.L166
 2704 008a FB79     	 ldrb r3,[r7,#7]
 2705 008c 9374     	 strb r3,[r2,#18]
 873:../Dave/Generated/AUTOMATION/automation.c **** }
 2706              	 .loc 1 873 0
 2707 008e 0837     	 adds r7,r7,#8
 2708              	.LCFI119:
 2709              	 .cfi_def_cfa_offset 8
 2710 0090 BD46     	 mov sp,r7
 2711              	.LCFI120:
 2712              	 .cfi_def_cfa_register 13
 2713              	 
 2714 0092 90BC     	 pop {r4,r7}
 2715              	.LCFI121:
 2716              	 .cfi_restore 7
 2717              	 .cfi_restore 4
 2718              	 .cfi_def_cfa_offset 0
 2719 0094 7047     	 bx lr
 2720              	.L167:
 2721 0096 00BF     	 .align 2
 2722              	.L166:
 2723 0098 00000000 	 .word AUTOMATION_0
 2724 009c 00000000 	 .word AUTOMATION_FB_Connect_Table
 2725              	 .cfi_endproc
 2726              	.LFE156:
 2728              	 .section .text.AUTOMATION_FB_RampTargetValueCalc,"ax",%progbits
 2729              	 .align 2
 2730              	 .global AUTOMATION_FB_RampTargetValueCalc
 2731              	 .thumb
 2732              	 .thumb_func
 2734              	AUTOMATION_FB_RampTargetValueCalc:
 2735              	.LFB157:
 874:../Dave/Generated/AUTOMATION/automation.c **** 
 875:../Dave/Generated/AUTOMATION/automation.c **** /* initialize ramp generator target values*/
 876:../Dave/Generated/AUTOMATION/automation.c **** void AUTOMATION_FB_RampTargetValueCalc(AUTOMATION_FB_RAMPGEN_t* const ramphandle_ptr)
 877:../Dave/Generated/AUTOMATION/automation.c **** {
 2736              	 .loc 1 877 0
 2737              	 .cfi_startproc
 2738              	 
 2739              	 
 2740              	 
 2741 0000 80B4     	 push {r7}
 2742              	.LCFI122:
 2743              	 .cfi_def_cfa_offset 4
 2744              	 .cfi_offset 7,-4
 2745 0002 85B0     	 sub sp,sp,#20
 2746              	.LCFI123:
 2747              	 .cfi_def_cfa_offset 24
 2748 0004 00AF     	 add r7,sp,#0
 2749              	.LCFI124:
 2750              	 .cfi_def_cfa_register 7
 2751 0006 7860     	 str r0,[r7,#4]
 878:../Dave/Generated/AUTOMATION/automation.c ****   int32_t scale = (AUTOMATION_PARAM_SCALE * AUTOMATION_PARAM_SCALE) / (int32_t)(*ramphandle_ptr->sc
 2752              	 .loc 1 878 0
 2753 0008 7B68     	 ldr r3,[r7,#4]
 2754 000a 5B69     	 ldr r3,[r3,#20]
 2755 000c 1B68     	 ldr r3,[r3]
 2756 000e 1A46     	 mov r2,r3
 2757 0010 3A4B     	 ldr r3,.L169
 2758 0012 93FBF2F3 	 sdiv r3,r3,r2
 2759 0016 FB60     	 str r3,[r7,#12]
 879:../Dave/Generated/AUTOMATION/automation.c **** 
 880:../Dave/Generated/AUTOMATION/automation.c ****   /* Find the target values */
 881:../Dave/Generated/AUTOMATION/automation.c ****   ramphandle_ptr->startset_t = (ramphandle_ptr->config_ptr->startset * scale) / AUTOMATION_PARAM_SC
 2760              	 .loc 1 881 0
 2761 0018 7B68     	 ldr r3,[r7,#4]
 2762 001a DB6C     	 ldr r3,[r3,#76]
 2763 001c 1B68     	 ldr r3,[r3]
 2764 001e FA68     	 ldr r2,[r7,#12]
 2765 0020 02FB03F3 	 mul r3,r2,r3
 2766 0024 364A     	 ldr r2,.L169+4
 2767 0026 82FB0312 	 smull r1,r2,r2,r3
 2768 002a 1A44     	 add r2,r2,r3
 2769 002c 9213     	 asrs r2,r2,#14
 2770 002e DB17     	 asrs r3,r3,#31
 2771 0030 D21A     	 subs r2,r2,r3
 2772 0032 7B68     	 ldr r3,[r7,#4]
 2773 0034 9A60     	 str r2,[r3,#8]
 882:../Dave/Generated/AUTOMATION/automation.c ****   ramphandle_ptr->out_set_t = ramphandle_ptr->startset_t;
 2774              	 .loc 1 882 0
 2775 0036 7B68     	 ldr r3,[r7,#4]
 2776 0038 9A68     	 ldr r2,[r3,#8]
 2777 003a 7B68     	 ldr r3,[r7,#4]
 2778 003c DA60     	 str r2,[r3,#12]
 883:../Dave/Generated/AUTOMATION/automation.c **** 
 884:../Dave/Generated/AUTOMATION/automation.c ****   ramphandle_ptr->endset_t = (ramphandle_ptr->config_ptr->endset * scale) / AUTOMATION_PARAM_SCALE;
 2779              	 .loc 1 884 0
 2780 003e 7B68     	 ldr r3,[r7,#4]
 2781 0040 DB6C     	 ldr r3,[r3,#76]
 2782 0042 5B68     	 ldr r3,[r3,#4]
 2783 0044 FA68     	 ldr r2,[r7,#12]
 2784 0046 02FB03F3 	 mul r3,r2,r3
 2785 004a 2D4A     	 ldr r2,.L169+4
 2786 004c 82FB0312 	 smull r1,r2,r2,r3
 2787 0050 1A44     	 add r2,r2,r3
 2788 0052 9213     	 asrs r2,r2,#14
 2789 0054 DB17     	 asrs r3,r3,#31
 2790 0056 D21A     	 subs r2,r2,r3
 2791 0058 7B68     	 ldr r3,[r7,#4]
 2792 005a 1A60     	 str r2,[r3]
 885:../Dave/Generated/AUTOMATION/automation.c **** 
 886:../Dave/Generated/AUTOMATION/automation.c ****   ramphandle_ptr->linear_startvalue_t =
 887:../Dave/Generated/AUTOMATION/automation.c ****       (ramphandle_ptr->config_ptr->linear_startvalue * scale) / AUTOMATION_PARAM_SCALE;
 2793              	 .loc 1 887 0
 2794 005c 7B68     	 ldr r3,[r7,#4]
 2795 005e DB6C     	 ldr r3,[r3,#76]
 2796 0060 1B69     	 ldr r3,[r3,#16]
 2797 0062 FA68     	 ldr r2,[r7,#12]
 2798 0064 02FB03F3 	 mul r3,r2,r3
 2799 0068 254A     	 ldr r2,.L169+4
 2800 006a 82FB0312 	 smull r1,r2,r2,r3
 2801 006e 1A44     	 add r2,r2,r3
 2802 0070 9213     	 asrs r2,r2,#14
 2803 0072 DB17     	 asrs r3,r3,#31
 2804 0074 D21A     	 subs r2,r2,r3
 886:../Dave/Generated/AUTOMATION/automation.c ****       (ramphandle_ptr->config_ptr->linear_startvalue * scale) / AUTOMATION_PARAM_SCALE;
 2805              	 .loc 1 886 0
 2806 0076 7B68     	 ldr r3,[r7,#4]
 2807 0078 1A64     	 str r2,[r3,#64]
 888:../Dave/Generated/AUTOMATION/automation.c **** 
 889:../Dave/Generated/AUTOMATION/automation.c ****   ramphandle_ptr->linear_endvalue_t = (ramphandle_ptr->config_ptr->linear_endvalue * scale) / AUTOM
 2808              	 .loc 1 889 0
 2809 007a 7B68     	 ldr r3,[r7,#4]
 2810 007c DB6C     	 ldr r3,[r3,#76]
 2811 007e 5B69     	 ldr r3,[r3,#20]
 2812 0080 FA68     	 ldr r2,[r7,#12]
 2813 0082 02FB03F3 	 mul r3,r2,r3
 2814 0086 1E4A     	 ldr r2,.L169+4
 2815 0088 82FB0312 	 smull r1,r2,r2,r3
 2816 008c 1A44     	 add r2,r2,r3
 2817 008e 9213     	 asrs r2,r2,#14
 2818 0090 DB17     	 asrs r3,r3,#31
 2819 0092 D21A     	 subs r2,r2,r3
 2820 0094 7B68     	 ldr r3,[r7,#4]
 2821 0096 5A64     	 str r2,[r3,#68]
 890:../Dave/Generated/AUTOMATION/automation.c **** 
 891:../Dave/Generated/AUTOMATION/automation.c ****   ramphandle_ptr->counter_t = (ramphandle_ptr->counter * ((*ramphandle_ptr->scale_ptr))) >> 15U;
 2822              	 .loc 1 891 0
 2823 0098 7B68     	 ldr r3,[r7,#4]
 2824 009a 9B69     	 ldr r3,[r3,#24]
 2825 009c 7A68     	 ldr r2,[r7,#4]
 2826 009e 5269     	 ldr r2,[r2,#20]
 2827 00a0 1268     	 ldr r2,[r2]
 2828 00a2 02FB03F3 	 mul r3,r2,r3
 2829 00a6 DA0B     	 lsrs r2,r3,#15
 2830 00a8 7B68     	 ldr r3,[r7,#4]
 2831 00aa DA61     	 str r2,[r3,#28]
 892:../Dave/Generated/AUTOMATION/automation.c **** 
 893:../Dave/Generated/AUTOMATION/automation.c ****   ramphandle_ptr->slewrate_counter_t = (ramphandle_ptr->config_ptr->slewrate_counter * (*ramphandle
 2832              	 .loc 1 893 0
 2833 00ac 7B68     	 ldr r3,[r7,#4]
 2834 00ae DB6C     	 ldr r3,[r3,#76]
 2835 00b0 9B69     	 ldr r3,[r3,#24]
 2836 00b2 7A68     	 ldr r2,[r7,#4]
 2837 00b4 5269     	 ldr r2,[r2,#20]
 2838 00b6 1268     	 ldr r2,[r2]
 2839 00b8 02FB03F2 	 mul r2,r2,r3
 894:../Dave/Generated/AUTOMATION/automation.c ****       / (ramphandle_ptr->config_ptr->time_constant);
 2840              	 .loc 1 894 0
 2841 00bc 7B68     	 ldr r3,[r7,#4]
 2842 00be DB6C     	 ldr r3,[r3,#76]
 2843 00c0 DB68     	 ldr r3,[r3,#12]
 2844 00c2 B2FBF3F2 	 udiv r2,r2,r3
 893:../Dave/Generated/AUTOMATION/automation.c ****       / (ramphandle_ptr->config_ptr->time_constant);
 2845              	 .loc 1 893 0
 2846 00c6 7B68     	 ldr r3,[r7,#4]
 2847 00c8 9A63     	 str r2,[r3,#56]
 895:../Dave/Generated/AUTOMATION/automation.c **** 
 896:../Dave/Generated/AUTOMATION/automation.c ****   ramphandle_ptr->slewrate_endset_t = (ramphandle_ptr->config_ptr->slewrate_endset
 2848              	 .loc 1 896 0
 2849 00ca 7B68     	 ldr r3,[r7,#4]
 2850 00cc DB6C     	 ldr r3,[r3,#76]
 2851 00ce DB69     	 ldr r3,[r3,#28]
 897:../Dave/Generated/AUTOMATION/automation.c ****       * (int32_t) ramphandle_ptr->config_ptr->time_constant) / ((int32_t)(*ramphandle_ptr->scale_pt
 2852              	 .loc 1 897 0
 2853 00d0 7A68     	 ldr r2,[r7,#4]
 2854 00d2 D26C     	 ldr r2,[r2,#76]
 2855 00d4 D268     	 ldr r2,[r2,#12]
 2856 00d6 02FB03F3 	 mul r3,r2,r3
 2857 00da 7A68     	 ldr r2,[r7,#4]
 2858 00dc 5269     	 ldr r2,[r2,#20]
 2859 00de 1268     	 ldr r2,[r2]
 2860 00e0 93FBF2F2 	 sdiv r2,r3,r2
 896:../Dave/Generated/AUTOMATION/automation.c ****       * (int32_t) ramphandle_ptr->config_ptr->time_constant) / ((int32_t)(*ramphandle_ptr->scale_pt
 2861              	 .loc 1 896 0
 2862 00e4 7B68     	 ldr r3,[r7,#4]
 2863 00e6 1A63     	 str r2,[r3,#48]
 898:../Dave/Generated/AUTOMATION/automation.c **** 
 899:../Dave/Generated/AUTOMATION/automation.c ****   ramphandle_ptr->slewrate_end = ramphandle_ptr->slewrate_endset_t;
 2864              	 .loc 1 899 0
 2865 00e8 7B68     	 ldr r3,[r7,#4]
 2866 00ea 1A6B     	 ldr r2,[r3,#48]
 2867 00ec 7B68     	 ldr r3,[r7,#4]
 2868 00ee 9A62     	 str r2,[r3,#40]
 900:../Dave/Generated/AUTOMATION/automation.c **** }
 2869              	 .loc 1 900 0
 2870 00f0 1437     	 adds r7,r7,#20
 2871              	.LCFI125:
 2872              	 .cfi_def_cfa_offset 4
 2873 00f2 BD46     	 mov sp,r7
 2874              	.LCFI126:
 2875              	 .cfi_def_cfa_register 13
 2876              	 
 2877 00f4 5DF8047B 	 ldr r7,[sp],#4
 2878              	.LCFI127:
 2879              	 .cfi_restore 7
 2880              	 .cfi_def_cfa_offset 0
 2881 00f8 7047     	 bx lr
 2882              	.L170:
 2883 00fa 00BF     	 .align 2
 2884              	.L169:
 2885 00fc 0100FF3F 	 .word 1073676289
 2886 0100 03000180 	 .word -2147418109
 2887              	 .cfi_endproc
 2888              	.LFE157:
 2890              	 .section .text.AUTOMATION_FB_RampInit,"ax",%progbits
 2891              	 .align 2
 2892              	 .global AUTOMATION_FB_RampInit
 2893              	 .thumb
 2894              	 .thumb_func
 2896              	AUTOMATION_FB_RampInit:
 2897              	.LFB158:
 901:../Dave/Generated/AUTOMATION/automation.c **** 
 902:../Dave/Generated/AUTOMATION/automation.c **** /* initialize ramp generator target values*/
 903:../Dave/Generated/AUTOMATION/automation.c **** void AUTOMATION_FB_RampInit(AUTOMATION_FB_HANDLE_t* const rampfb_ptr)
 904:../Dave/Generated/AUTOMATION/automation.c **** {
 2898              	 .loc 1 904 0
 2899              	 .cfi_startproc
 2900              	 
 2901              	 
 2902              	 
 2903 0000 80B4     	 push {r7}
 2904              	.LCFI128:
 2905              	 .cfi_def_cfa_offset 4
 2906              	 .cfi_offset 7,-4
 2907 0002 85B0     	 sub sp,sp,#20
 2908              	.LCFI129:
 2909              	 .cfi_def_cfa_offset 24
 2910 0004 00AF     	 add r7,sp,#0
 2911              	.LCFI130:
 2912              	 .cfi_def_cfa_register 7
 2913 0006 7860     	 str r0,[r7,#4]
 905:../Dave/Generated/AUTOMATION/automation.c ****   AUTOMATION_FB_RAMPGEN_t* ramphandle_ptr = rampfb_ptr->config_ptr;
 2914              	 .loc 1 905 0
 2915 0008 7B68     	 ldr r3,[r7,#4]
 2916 000a 9B68     	 ldr r3,[r3,#8]
 2917 000c FB60     	 str r3,[r7,#12]
 906:../Dave/Generated/AUTOMATION/automation.c ****   ramphandle_ptr->out_set_t = ramphandle_ptr->startset_t;
 2918              	 .loc 1 906 0
 2919 000e FB68     	 ldr r3,[r7,#12]
 2920 0010 9A68     	 ldr r2,[r3,#8]
 2921 0012 FB68     	 ldr r3,[r7,#12]
 2922 0014 DA60     	 str r2,[r3,#12]
 907:../Dave/Generated/AUTOMATION/automation.c **** }
 2923              	 .loc 1 907 0
 2924 0016 1437     	 adds r7,r7,#20
 2925              	.LCFI131:
 2926              	 .cfi_def_cfa_offset 4
 2927 0018 BD46     	 mov sp,r7
 2928              	.LCFI132:
 2929              	 .cfi_def_cfa_register 13
 2930              	 
 2931 001a 5DF8047B 	 ldr r7,[sp],#4
 2932              	.LCFI133:
 2933              	 .cfi_restore 7
 2934              	 .cfi_def_cfa_offset 0
 2935 001e 7047     	 bx lr
 2936              	 .cfi_endproc
 2937              	.LFE158:
 2939              	 .section .text.AUTOMATION_FB_SetRampStartValue,"ax",%progbits
 2940              	 .align 2
 2941              	 .global AUTOMATION_FB_SetRampStartValue
 2942              	 .thumb
 2943              	 .thumb_func
 2945              	AUTOMATION_FB_SetRampStartValue:
 2946              	.LFB159:
 908:../Dave/Generated/AUTOMATION/automation.c **** 
 909:../Dave/Generated/AUTOMATION/automation.c **** /* Set ramp start value for ramp */
 910:../Dave/Generated/AUTOMATION/automation.c **** AUTOMATION_STATUS_t AUTOMATION_FB_SetRampStartValue(AUTOMATION_FB_RAMPGEN_t* const ramphandle_ptr, 
 911:../Dave/Generated/AUTOMATION/automation.c **** {
 2947              	 .loc 1 911 0
 2948              	 .cfi_startproc
 2949              	 
 2950              	 
 2951              	 
 2952 0000 80B4     	 push {r7}
 2953              	.LCFI134:
 2954              	 .cfi_def_cfa_offset 4
 2955              	 .cfi_offset 7,-4
 2956 0002 87B0     	 sub sp,sp,#28
 2957              	.LCFI135:
 2958              	 .cfi_def_cfa_offset 32
 2959 0004 00AF     	 add r7,sp,#0
 2960              	.LCFI136:
 2961              	 .cfi_def_cfa_register 7
 2962 0006 7860     	 str r0,[r7,#4]
 2963 0008 3960     	 str r1,[r7]
 912:../Dave/Generated/AUTOMATION/automation.c ****   int32_t target_value;
 913:../Dave/Generated/AUTOMATION/automation.c ****   int32_t difference;
 914:../Dave/Generated/AUTOMATION/automation.c ****   AUTOMATION_STATUS_t status;
 915:../Dave/Generated/AUTOMATION/automation.c **** 
 916:../Dave/Generated/AUTOMATION/automation.c ****   if ((start_value > AUTOMATION_FB_RAMP_MIN) && (start_value < AUTOMATION_FB_RAMP_MAX))
 2964              	 .loc 1 916 0
 2965 000a 3B68     	 ldr r3,[r7]
 2966 000c 13F5803F 	 cmn r3,#65536
 2967 0010 4BDD     	 ble .L173
 2968              	 .loc 1 916 0 is_stmt 0 discriminator 1
 2969 0012 3B68     	 ldr r3,[r7]
 2970 0014 4FF6FE72 	 movw r2,#65534
 2971 0018 9342     	 cmp r3,r2
 2972 001a 46DC     	 bgt .L173
 917:../Dave/Generated/AUTOMATION/automation.c ****   {
 918:../Dave/Generated/AUTOMATION/automation.c ****     target_value = (start_value * AUTOMATION_PARAM_SCALE) / (int32_t)(*ramphandle_ptr->scale_ptr);
 2973              	 .loc 1 918 0 is_stmt 1
 2974 001c 3A68     	 ldr r2,[r7]
 2975 001e 1346     	 mov r3,r2
 2976 0020 DB03     	 lsls r3,r3,#15
 2977 0022 9B1A     	 subs r3,r3,r2
 2978 0024 7A68     	 ldr r2,[r7,#4]
 2979 0026 5269     	 ldr r2,[r2,#20]
 2980 0028 1268     	 ldr r2,[r2]
 2981 002a 93FBF2F3 	 sdiv r3,r3,r2
 2982 002e 3B61     	 str r3,[r7,#16]
 919:../Dave/Generated/AUTOMATION/automation.c ****     ramphandle_ptr->out_set_t = (target_value);
 2983              	 .loc 1 919 0
 2984 0030 7B68     	 ldr r3,[r7,#4]
 2985 0032 3A69     	 ldr r2,[r7,#16]
 2986 0034 DA60     	 str r2,[r3,#12]
 920:../Dave/Generated/AUTOMATION/automation.c ****     ramphandle_ptr->startset_t = (target_value);
 2987              	 .loc 1 920 0
 2988 0036 7B68     	 ldr r3,[r7,#4]
 2989 0038 3A69     	 ldr r2,[r7,#16]
 2990 003a 9A60     	 str r2,[r3,#8]
 921:../Dave/Generated/AUTOMATION/automation.c ****     if (AUTOMATION_FB_RAMPTYPE_SCURVE == ramphandle_ptr->config_ptr->ramp_type)
 2991              	 .loc 1 921 0
 2992 003c 7B68     	 ldr r3,[r7,#4]
 2993 003e DB6C     	 ldr r3,[r3,#76]
 2994 0040 93F82130 	 ldrb r3,[r3,#33]
 2995 0044 012B     	 cmp r3,#1
 2996 0046 2DD1     	 bne .L174
 922:../Dave/Generated/AUTOMATION/automation.c ****     {
 923:../Dave/Generated/AUTOMATION/automation.c ****       difference = (*(ramphandle_ptr->endset_ptr) - ramphandle_ptr->startset_t);
 2997              	 .loc 1 923 0
 2998 0048 7B68     	 ldr r3,[r7,#4]
 2999 004a 5B68     	 ldr r3,[r3,#4]
 3000 004c 1A68     	 ldr r2,[r3]
 3001 004e 7B68     	 ldr r3,[r7,#4]
 3002 0050 9B68     	 ldr r3,[r3,#8]
 3003 0052 D31A     	 subs r3,r2,r3
 3004 0054 FB60     	 str r3,[r7,#12]
 924:../Dave/Generated/AUTOMATION/automation.c ****       ramphandle_ptr->linear_startvalue_t = (ramphandle_ptr->startset_t)
 3005              	 .loc 1 924 0
 3006 0056 7B68     	 ldr r3,[r7,#4]
 3007 0058 9A68     	 ldr r2,[r3,#8]
 925:../Dave/Generated/AUTOMATION/automation.c ****           + ((difference * (int32_t) ramphandle_ptr->config_ptr->ratio) / 100);
 3008              	 .loc 1 925 0
 3009 005a 7B68     	 ldr r3,[r7,#4]
 3010 005c DB6C     	 ldr r3,[r3,#76]
 3011 005e 93F82230 	 ldrb r3,[r3,#34]
 3012 0062 1946     	 mov r1,r3
 3013 0064 FB68     	 ldr r3,[r7,#12]
 3014 0066 03FB01F3 	 mul r3,r3,r1
 3015 006a 1449     	 ldr r1,.L177
 3016 006c 81FB0301 	 smull r0,r1,r1,r3
 3017 0070 4911     	 asrs r1,r1,#5
 3018 0072 DB17     	 asrs r3,r3,#31
 3019 0074 CB1A     	 subs r3,r1,r3
 3020 0076 1A44     	 add r2,r2,r3
 924:../Dave/Generated/AUTOMATION/automation.c ****       ramphandle_ptr->linear_startvalue_t = (ramphandle_ptr->startset_t)
 3021              	 .loc 1 924 0
 3022 0078 7B68     	 ldr r3,[r7,#4]
 3023 007a 1A64     	 str r2,[r3,#64]
 926:../Dave/Generated/AUTOMATION/automation.c ****       ramphandle_ptr->linear_endvalue_t = *(ramphandle_ptr->endset_ptr)
 3024              	 .loc 1 926 0
 3025 007c 7B68     	 ldr r3,[r7,#4]
 3026 007e 5B68     	 ldr r3,[r3,#4]
 3027 0080 1A68     	 ldr r2,[r3]
 927:../Dave/Generated/AUTOMATION/automation.c ****           - ((difference * (int32_t) ramphandle_ptr->config_ptr->ratio) / 100);
 3028              	 .loc 1 927 0
 3029 0082 7B68     	 ldr r3,[r7,#4]
 3030 0084 DB6C     	 ldr r3,[r3,#76]
 3031 0086 93F82230 	 ldrb r3,[r3,#34]
 3032 008a 1946     	 mov r1,r3
 3033 008c FB68     	 ldr r3,[r7,#12]
 3034 008e 03FB01F3 	 mul r3,r3,r1
 3035 0092 0A49     	 ldr r1,.L177
 3036 0094 81FB0301 	 smull r0,r1,r1,r3
 3037 0098 4911     	 asrs r1,r1,#5
 3038 009a DB17     	 asrs r3,r3,#31
 3039 009c CB1A     	 subs r3,r1,r3
 3040 009e D21A     	 subs r2,r2,r3
 926:../Dave/Generated/AUTOMATION/automation.c ****       ramphandle_ptr->linear_endvalue_t = *(ramphandle_ptr->endset_ptr)
 3041              	 .loc 1 926 0
 3042 00a0 7B68     	 ldr r3,[r7,#4]
 3043 00a2 5A64     	 str r2,[r3,#68]
 3044              	.L174:
 928:../Dave/Generated/AUTOMATION/automation.c ****     }
 929:../Dave/Generated/AUTOMATION/automation.c ****     status = AUTOMATION_STATUS_SUCCESS;
 3045              	 .loc 1 929 0
 3046 00a4 0023     	 movs r3,#0
 3047 00a6 FB75     	 strb r3,[r7,#23]
 3048 00a8 01E0     	 b .L175
 3049              	.L173:
 930:../Dave/Generated/AUTOMATION/automation.c ****   }
 931:../Dave/Generated/AUTOMATION/automation.c ****   else
 932:../Dave/Generated/AUTOMATION/automation.c ****   {
 933:../Dave/Generated/AUTOMATION/automation.c ****     status = AUTOMATION_STATUS_INVALID_PARAM;
 3050              	 .loc 1 933 0
 3051 00aa 0223     	 movs r3,#2
 3052 00ac FB75     	 strb r3,[r7,#23]
 3053              	.L175:
 934:../Dave/Generated/AUTOMATION/automation.c ****   }
 935:../Dave/Generated/AUTOMATION/automation.c ****   return status;
 3054              	 .loc 1 935 0
 3055 00ae FB7D     	 ldrb r3,[r7,#23]
 936:../Dave/Generated/AUTOMATION/automation.c **** }
 3056              	 .loc 1 936 0
 3057 00b0 1846     	 mov r0,r3
 3058 00b2 1C37     	 adds r7,r7,#28
 3059              	.LCFI137:
 3060              	 .cfi_def_cfa_offset 4
 3061 00b4 BD46     	 mov sp,r7
 3062              	.LCFI138:
 3063              	 .cfi_def_cfa_register 13
 3064              	 
 3065 00b6 5DF8047B 	 ldr r7,[sp],#4
 3066              	.LCFI139:
 3067              	 .cfi_restore 7
 3068              	 .cfi_def_cfa_offset 0
 3069 00ba 7047     	 bx lr
 3070              	.L178:
 3071              	 .align 2
 3072              	.L177:
 3073 00bc 1F85EB51 	 .word 1374389535
 3074              	 .cfi_endproc
 3075              	.LFE159:
 3077              	 .section .text.AUTOMATION_FB_SetRampEndValue,"ax",%progbits
 3078              	 .align 2
 3079              	 .global AUTOMATION_FB_SetRampEndValue
 3080              	 .thumb
 3081              	 .thumb_func
 3083              	AUTOMATION_FB_SetRampEndValue:
 3084              	.LFB160:
 937:../Dave/Generated/AUTOMATION/automation.c **** 
 938:../Dave/Generated/AUTOMATION/automation.c **** /* Set ramp end value for ramp */
 939:../Dave/Generated/AUTOMATION/automation.c **** AUTOMATION_STATUS_t AUTOMATION_FB_SetRampEndValue(AUTOMATION_FB_RAMPGEN_t* const ramphandle_ptr, in
 940:../Dave/Generated/AUTOMATION/automation.c **** {
 3085              	 .loc 1 940 0
 3086              	 .cfi_startproc
 3087              	 
 3088              	 
 3089              	 
 3090 0000 80B4     	 push {r7}
 3091              	.LCFI140:
 3092              	 .cfi_def_cfa_offset 4
 3093              	 .cfi_offset 7,-4
 3094 0002 85B0     	 sub sp,sp,#20
 3095              	.LCFI141:
 3096              	 .cfi_def_cfa_offset 24
 3097 0004 00AF     	 add r7,sp,#0
 3098              	.LCFI142:
 3099              	 .cfi_def_cfa_register 7
 3100 0006 7860     	 str r0,[r7,#4]
 3101 0008 3960     	 str r1,[r7]
 941:../Dave/Generated/AUTOMATION/automation.c ****   int32_t difference;
 942:../Dave/Generated/AUTOMATION/automation.c ****   AUTOMATION_STATUS_t status;
 943:../Dave/Generated/AUTOMATION/automation.c ****   if ((end_value > AUTOMATION_FB_RAMP_MIN) && (end_value < AUTOMATION_FB_RAMP_MAX))
 3102              	 .loc 1 943 0
 3103 000a 3B68     	 ldr r3,[r7]
 3104 000c 13F5803F 	 cmn r3,#65536
 3105 0010 47DD     	 ble .L180
 3106              	 .loc 1 943 0 is_stmt 0 discriminator 1
 3107 0012 3B68     	 ldr r3,[r7]
 3108 0014 4FF6FE72 	 movw r2,#65534
 3109 0018 9342     	 cmp r3,r2
 3110 001a 42DC     	 bgt .L180
 944:../Dave/Generated/AUTOMATION/automation.c ****   {
 945:../Dave/Generated/AUTOMATION/automation.c ****     *(ramphandle_ptr->endset_ptr) = (end_value * AUTOMATION_PARAM_SCALE) / (int32_t)(*ramphandle_pt
 3111              	 .loc 1 945 0 is_stmt 1
 3112 001c 7B68     	 ldr r3,[r7,#4]
 3113 001e 5968     	 ldr r1,[r3,#4]
 3114 0020 3A68     	 ldr r2,[r7]
 3115 0022 1346     	 mov r3,r2
 3116 0024 DB03     	 lsls r3,r3,#15
 3117 0026 9B1A     	 subs r3,r3,r2
 3118 0028 7A68     	 ldr r2,[r7,#4]
 3119 002a 5269     	 ldr r2,[r2,#20]
 3120 002c 1268     	 ldr r2,[r2]
 3121 002e 93FBF2F3 	 sdiv r3,r3,r2
 3122 0032 0B60     	 str r3,[r1]
 946:../Dave/Generated/AUTOMATION/automation.c ****     if (AUTOMATION_FB_RAMPTYPE_SCURVE == ramphandle_ptr->config_ptr->ramp_type)
 3123              	 .loc 1 946 0
 3124 0034 7B68     	 ldr r3,[r7,#4]
 3125 0036 DB6C     	 ldr r3,[r3,#76]
 3126 0038 93F82130 	 ldrb r3,[r3,#33]
 3127 003c 012B     	 cmp r3,#1
 3128 003e 2DD1     	 bne .L181
 947:../Dave/Generated/AUTOMATION/automation.c ****     {
 948:../Dave/Generated/AUTOMATION/automation.c ****       difference = (*(ramphandle_ptr->endset_ptr) - ramphandle_ptr->startset_t);
 3129              	 .loc 1 948 0
 3130 0040 7B68     	 ldr r3,[r7,#4]
 3131 0042 5B68     	 ldr r3,[r3,#4]
 3132 0044 1A68     	 ldr r2,[r3]
 3133 0046 7B68     	 ldr r3,[r7,#4]
 3134 0048 9B68     	 ldr r3,[r3,#8]
 3135 004a D31A     	 subs r3,r2,r3
 3136 004c BB60     	 str r3,[r7,#8]
 949:../Dave/Generated/AUTOMATION/automation.c ****       ramphandle_ptr->linear_startvalue_t = (ramphandle_ptr->startset_t)
 3137              	 .loc 1 949 0
 3138 004e 7B68     	 ldr r3,[r7,#4]
 3139 0050 9A68     	 ldr r2,[r3,#8]
 950:../Dave/Generated/AUTOMATION/automation.c ****           + ((difference * (int32_t) ramphandle_ptr->config_ptr->ratio) / 100);
 3140              	 .loc 1 950 0
 3141 0052 7B68     	 ldr r3,[r7,#4]
 3142 0054 DB6C     	 ldr r3,[r3,#76]
 3143 0056 93F82230 	 ldrb r3,[r3,#34]
 3144 005a 1946     	 mov r1,r3
 3145 005c BB68     	 ldr r3,[r7,#8]
 3146 005e 03FB01F3 	 mul r3,r3,r1
 3147 0062 1449     	 ldr r1,.L184
 3148 0064 81FB0301 	 smull r0,r1,r1,r3
 3149 0068 4911     	 asrs r1,r1,#5
 3150 006a DB17     	 asrs r3,r3,#31
 3151 006c CB1A     	 subs r3,r1,r3
 3152 006e 1A44     	 add r2,r2,r3
 949:../Dave/Generated/AUTOMATION/automation.c ****       ramphandle_ptr->linear_startvalue_t = (ramphandle_ptr->startset_t)
 3153              	 .loc 1 949 0
 3154 0070 7B68     	 ldr r3,[r7,#4]
 3155 0072 1A64     	 str r2,[r3,#64]
 951:../Dave/Generated/AUTOMATION/automation.c ****       ramphandle_ptr->linear_endvalue_t = *(ramphandle_ptr->endset_ptr)
 3156              	 .loc 1 951 0
 3157 0074 7B68     	 ldr r3,[r7,#4]
 3158 0076 5B68     	 ldr r3,[r3,#4]
 3159 0078 1A68     	 ldr r2,[r3]
 952:../Dave/Generated/AUTOMATION/automation.c ****           - ((difference * (int32_t) ramphandle_ptr->config_ptr->ratio) / 100);
 3160              	 .loc 1 952 0
 3161 007a 7B68     	 ldr r3,[r7,#4]
 3162 007c DB6C     	 ldr r3,[r3,#76]
 3163 007e 93F82230 	 ldrb r3,[r3,#34]
 3164 0082 1946     	 mov r1,r3
 3165 0084 BB68     	 ldr r3,[r7,#8]
 3166 0086 03FB01F3 	 mul r3,r3,r1
 3167 008a 0A49     	 ldr r1,.L184
 3168 008c 81FB0301 	 smull r0,r1,r1,r3
 3169 0090 4911     	 asrs r1,r1,#5
 3170 0092 DB17     	 asrs r3,r3,#31
 3171 0094 CB1A     	 subs r3,r1,r3
 3172 0096 D21A     	 subs r2,r2,r3
 951:../Dave/Generated/AUTOMATION/automation.c ****       ramphandle_ptr->linear_endvalue_t = *(ramphandle_ptr->endset_ptr)
 3173              	 .loc 1 951 0
 3174 0098 7B68     	 ldr r3,[r7,#4]
 3175 009a 5A64     	 str r2,[r3,#68]
 3176              	.L181:
 953:../Dave/Generated/AUTOMATION/automation.c ****     }
 954:../Dave/Generated/AUTOMATION/automation.c ****     status = AUTOMATION_STATUS_SUCCESS;
 3177              	 .loc 1 954 0
 3178 009c 0023     	 movs r3,#0
 3179 009e FB73     	 strb r3,[r7,#15]
 3180 00a0 01E0     	 b .L182
 3181              	.L180:
 955:../Dave/Generated/AUTOMATION/automation.c ****   }
 956:../Dave/Generated/AUTOMATION/automation.c ****   else
 957:../Dave/Generated/AUTOMATION/automation.c ****   {
 958:../Dave/Generated/AUTOMATION/automation.c ****     status = AUTOMATION_STATUS_INVALID_PARAM;
 3182              	 .loc 1 958 0
 3183 00a2 0223     	 movs r3,#2
 3184 00a4 FB73     	 strb r3,[r7,#15]
 3185              	.L182:
 959:../Dave/Generated/AUTOMATION/automation.c ****   }
 960:../Dave/Generated/AUTOMATION/automation.c ****   return status;
 3186              	 .loc 1 960 0
 3187 00a6 FB7B     	 ldrb r3,[r7,#15]
 961:../Dave/Generated/AUTOMATION/automation.c **** }
 3188              	 .loc 1 961 0
 3189 00a8 1846     	 mov r0,r3
 3190 00aa 1437     	 adds r7,r7,#20
 3191              	.LCFI143:
 3192              	 .cfi_def_cfa_offset 4
 3193 00ac BD46     	 mov sp,r7
 3194              	.LCFI144:
 3195              	 .cfi_def_cfa_register 13
 3196              	 
 3197 00ae 5DF8047B 	 ldr r7,[sp],#4
 3198              	.LCFI145:
 3199              	 .cfi_restore 7
 3200              	 .cfi_def_cfa_offset 0
 3201 00b2 7047     	 bx lr
 3202              	.L185:
 3203              	 .align 2
 3204              	.L184:
 3205 00b4 1F85EB51 	 .word 1374389535
 3206              	 .cfi_endproc
 3207              	.LFE160:
 3209              	 .section .text.AUTOMATION_FB_SetLinearRampSlewRate,"ax",%progbits
 3210              	 .align 2
 3211              	 .global AUTOMATION_FB_SetLinearRampSlewRate
 3212              	 .thumb
 3213              	 .thumb_func
 3215              	AUTOMATION_FB_SetLinearRampSlewRate:
 3216              	.LFB161:
 962:../Dave/Generated/AUTOMATION/automation.c **** 
 963:../Dave/Generated/AUTOMATION/automation.c **** /* Set ramp slew rate for linear ramp */
 964:../Dave/Generated/AUTOMATION/automation.c **** AUTOMATION_STATUS_t AUTOMATION_FB_SetLinearRampSlewRate(AUTOMATION_FB_RAMPGEN_t* const ramphandle_p
 965:../Dave/Generated/AUTOMATION/automation.c ****                                                         uint32_t slew_rate)
 966:../Dave/Generated/AUTOMATION/automation.c **** {
 3217              	 .loc 1 966 0
 3218              	 .cfi_startproc
 3219              	 
 3220              	 
 3221              	 
 3222 0000 80B4     	 push {r7}
 3223              	.LCFI146:
 3224              	 .cfi_def_cfa_offset 4
 3225              	 .cfi_offset 7,-4
 3226 0002 85B0     	 sub sp,sp,#20
 3227              	.LCFI147:
 3228              	 .cfi_def_cfa_offset 24
 3229 0004 00AF     	 add r7,sp,#0
 3230              	.LCFI148:
 3231              	 .cfi_def_cfa_register 7
 3232 0006 7860     	 str r0,[r7,#4]
 3233 0008 3960     	 str r1,[r7]
 967:../Dave/Generated/AUTOMATION/automation.c ****   AUTOMATION_STATUS_t status;
 968:../Dave/Generated/AUTOMATION/automation.c ****   if ((slew_rate > AUTOMATION_FB_RAMP_SLEWRATE_MIN) && (slew_rate < AUTOMATION_FB_RAMP_SLEWRATE_MAX
 3234              	 .loc 1 968 0
 3235 000a 3B68     	 ldr r3,[r7]
 3236 000c 002B     	 cmp r3,#0
 3237 000e 18D0     	 beq .L187
 3238              	 .loc 1 968 0 is_stmt 0 discriminator 1
 3239 0010 3B68     	 ldr r3,[r7]
 3240 0012 104A     	 ldr r2,.L190
 3241 0014 9342     	 cmp r3,r2
 3242 0016 14D8     	 bhi .L187
 969:../Dave/Generated/AUTOMATION/automation.c ****   {
 970:../Dave/Generated/AUTOMATION/automation.c ****     ramphandle_ptr->counter = (ramphandle_ptr->config_ptr->time_constant) / (slew_rate);
 3243              	 .loc 1 970 0 is_stmt 1
 3244 0018 7B68     	 ldr r3,[r7,#4]
 3245 001a DB6C     	 ldr r3,[r3,#76]
 3246 001c DA68     	 ldr r2,[r3,#12]
 3247 001e 3B68     	 ldr r3,[r7]
 3248 0020 B2FBF3F2 	 udiv r2,r2,r3
 3249 0024 7B68     	 ldr r3,[r7,#4]
 3250 0026 9A61     	 str r2,[r3,#24]
 971:../Dave/Generated/AUTOMATION/automation.c ****     ramphandle_ptr->counter_t = (ramphandle_ptr->counter * ((*ramphandle_ptr->scale_ptr))) >> 15U;
 3251              	 .loc 1 971 0
 3252 0028 7B68     	 ldr r3,[r7,#4]
 3253 002a 9B69     	 ldr r3,[r3,#24]
 3254 002c 7A68     	 ldr r2,[r7,#4]
 3255 002e 5269     	 ldr r2,[r2,#20]
 3256 0030 1268     	 ldr r2,[r2]
 3257 0032 02FB03F3 	 mul r3,r2,r3
 3258 0036 DA0B     	 lsrs r2,r3,#15
 3259 0038 7B68     	 ldr r3,[r7,#4]
 3260 003a DA61     	 str r2,[r3,#28]
 972:../Dave/Generated/AUTOMATION/automation.c ****     status = AUTOMATION_STATUS_SUCCESS;
 3261              	 .loc 1 972 0
 3262 003c 0023     	 movs r3,#0
 3263 003e FB73     	 strb r3,[r7,#15]
 3264 0040 01E0     	 b .L188
 3265              	.L187:
 973:../Dave/Generated/AUTOMATION/automation.c ****   }
 974:../Dave/Generated/AUTOMATION/automation.c ****   else
 975:../Dave/Generated/AUTOMATION/automation.c ****   {
 976:../Dave/Generated/AUTOMATION/automation.c ****     status = AUTOMATION_STATUS_INVALID_PARAM;
 3266              	 .loc 1 976 0
 3267 0042 0223     	 movs r3,#2
 3268 0044 FB73     	 strb r3,[r7,#15]
 3269              	.L188:
 977:../Dave/Generated/AUTOMATION/automation.c ****   }
 978:../Dave/Generated/AUTOMATION/automation.c ****   return status;
 3270              	 .loc 1 978 0
 3271 0046 FB7B     	 ldrb r3,[r7,#15]
 979:../Dave/Generated/AUTOMATION/automation.c **** }
 3272              	 .loc 1 979 0
 3273 0048 1846     	 mov r0,r3
 3274 004a 1437     	 adds r7,r7,#20
 3275              	.LCFI149:
 3276              	 .cfi_def_cfa_offset 4
 3277 004c BD46     	 mov sp,r7
 3278              	.LCFI150:
 3279              	 .cfi_def_cfa_register 13
 3280              	 
 3281 004e 5DF8047B 	 ldr r7,[sp],#4
 3282              	.LCFI151:
 3283              	 .cfi_restore 7
 3284              	 .cfi_def_cfa_offset 0
 3285 0052 7047     	 bx lr
 3286              	.L191:
 3287              	 .align 2
 3288              	.L190:
 3289 0054 3F420F00 	 .word 999999
 3290              	 .cfi_endproc
 3291              	.LFE161:
 3293              	 .section .text.AUTOMATION_FB_SetSRampSlewRate,"ax",%progbits
 3294              	 .align 2
 3295              	 .global AUTOMATION_FB_SetSRampSlewRate
 3296              	 .thumb
 3297              	 .thumb_func
 3299              	AUTOMATION_FB_SetSRampSlewRate:
 3300              	.LFB162:
 980:../Dave/Generated/AUTOMATION/automation.c **** 
 981:../Dave/Generated/AUTOMATION/automation.c **** /* Set ramp slew rate for S ramp */
 982:../Dave/Generated/AUTOMATION/automation.c **** AUTOMATION_STATUS_t AUTOMATION_FB_SetSRampSlewRate(AUTOMATION_FB_RAMPGEN_t* const ramphandle_ptr, u
 983:../Dave/Generated/AUTOMATION/automation.c **** {
 3301              	 .loc 1 983 0
 3302              	 .cfi_startproc
 3303              	 
 3304              	 
 3305              	 
 3306 0000 80B4     	 push {r7}
 3307              	.LCFI152:
 3308              	 .cfi_def_cfa_offset 4
 3309              	 .cfi_offset 7,-4
 3310 0002 85B0     	 sub sp,sp,#20
 3311              	.LCFI153:
 3312              	 .cfi_def_cfa_offset 24
 3313 0004 00AF     	 add r7,sp,#0
 3314              	.LCFI154:
 3315              	 .cfi_def_cfa_register 7
 3316 0006 7860     	 str r0,[r7,#4]
 3317 0008 3960     	 str r1,[r7]
 984:../Dave/Generated/AUTOMATION/automation.c ****   AUTOMATION_STATUS_t status;
 985:../Dave/Generated/AUTOMATION/automation.c ****   uint32_t counter;
 986:../Dave/Generated/AUTOMATION/automation.c ****   if ((slew_rate > AUTOMATION_FB_RAMP_SLEWRATE_MIN) && (slew_rate < AUTOMATION_FB_RAMP_SLEWRATE_MAX
 3318              	 .loc 1 986 0
 3319 000a 3B68     	 ldr r3,[r7]
 3320 000c 002B     	 cmp r3,#0
 3321 000e 22D0     	 beq .L193
 3322              	 .loc 1 986 0 is_stmt 0 discriminator 1
 3323 0010 3B68     	 ldr r3,[r7]
 3324 0012 154A     	 ldr r2,.L198
 3325 0014 9342     	 cmp r3,r2
 3326 0016 1ED8     	 bhi .L193
 987:../Dave/Generated/AUTOMATION/automation.c ****   {
 988:../Dave/Generated/AUTOMATION/automation.c ****     if (ramphandle_ptr->config_ptr->time_constant != 0U)
 3327              	 .loc 1 988 0 is_stmt 1
 3328 0018 7B68     	 ldr r3,[r7,#4]
 3329 001a DB6C     	 ldr r3,[r3,#76]
 3330 001c DB68     	 ldr r3,[r3,#12]
 3331 001e 002B     	 cmp r3,#0
 3332 0020 14D0     	 beq .L194
 989:../Dave/Generated/AUTOMATION/automation.c ****     {
 990:../Dave/Generated/AUTOMATION/automation.c ****       counter = (ramphandle_ptr->config_ptr->time_constant) / slew_rate;
 3333              	 .loc 1 990 0
 3334 0022 7B68     	 ldr r3,[r7,#4]
 3335 0024 DB6C     	 ldr r3,[r3,#76]
 3336 0026 DA68     	 ldr r2,[r3,#12]
 3337 0028 3B68     	 ldr r3,[r7]
 3338 002a B2FBF3F3 	 udiv r3,r2,r3
 3339 002e BB60     	 str r3,[r7,#8]
 991:../Dave/Generated/AUTOMATION/automation.c ****       ramphandle_ptr->slewrate_counter_t = (counter * (*ramphandle_ptr->scale_ptr))
 3340              	 .loc 1 991 0
 3341 0030 7B68     	 ldr r3,[r7,#4]
 3342 0032 5B69     	 ldr r3,[r3,#20]
 3343 0034 1B68     	 ldr r3,[r3]
 3344 0036 BA68     	 ldr r2,[r7,#8]
 3345 0038 02FB03F2 	 mul r2,r2,r3
 992:../Dave/Generated/AUTOMATION/automation.c ****           / (ramphandle_ptr->config_ptr->time_constant);
 3346              	 .loc 1 992 0
 3347 003c 7B68     	 ldr r3,[r7,#4]
 3348 003e DB6C     	 ldr r3,[r3,#76]
 3349 0040 DB68     	 ldr r3,[r3,#12]
 3350 0042 B2FBF3F2 	 udiv r2,r2,r3
 991:../Dave/Generated/AUTOMATION/automation.c ****       ramphandle_ptr->slewrate_counter_t = (counter * (*ramphandle_ptr->scale_ptr))
 3351              	 .loc 1 991 0
 3352 0046 7B68     	 ldr r3,[r7,#4]
 3353 0048 9A63     	 str r2,[r3,#56]
 3354 004a 01E0     	 b .L195
 3355              	.L194:
 993:../Dave/Generated/AUTOMATION/automation.c ****     }
 994:../Dave/Generated/AUTOMATION/automation.c ****     else
 995:../Dave/Generated/AUTOMATION/automation.c ****     {
 996:../Dave/Generated/AUTOMATION/automation.c ****       status = AUTOMATION_STATUS_FAILURE;
 3356              	 .loc 1 996 0
 3357 004c 0123     	 movs r3,#1
 3358 004e FB73     	 strb r3,[r7,#15]
 3359              	.L195:
 997:../Dave/Generated/AUTOMATION/automation.c ****     }
 998:../Dave/Generated/AUTOMATION/automation.c ****     status = AUTOMATION_STATUS_SUCCESS;
 3360              	 .loc 1 998 0
 3361 0050 0023     	 movs r3,#0
 3362 0052 FB73     	 strb r3,[r7,#15]
 3363 0054 01E0     	 b .L196
 3364              	.L193:
 999:../Dave/Generated/AUTOMATION/automation.c ****   }
1000:../Dave/Generated/AUTOMATION/automation.c ****   else
1001:../Dave/Generated/AUTOMATION/automation.c ****   {
1002:../Dave/Generated/AUTOMATION/automation.c ****     status = AUTOMATION_STATUS_INVALID_PARAM;
 3365              	 .loc 1 1002 0
 3366 0056 0223     	 movs r3,#2
 3367 0058 FB73     	 strb r3,[r7,#15]
 3368              	.L196:
1003:../Dave/Generated/AUTOMATION/automation.c ****   }
1004:../Dave/Generated/AUTOMATION/automation.c ****   return status;
 3369              	 .loc 1 1004 0
 3370 005a FB7B     	 ldrb r3,[r7,#15]
1005:../Dave/Generated/AUTOMATION/automation.c **** }
 3371              	 .loc 1 1005 0
 3372 005c 1846     	 mov r0,r3
 3373 005e 1437     	 adds r7,r7,#20
 3374              	.LCFI155:
 3375              	 .cfi_def_cfa_offset 4
 3376 0060 BD46     	 mov sp,r7
 3377              	.LCFI156:
 3378              	 .cfi_def_cfa_register 13
 3379              	 
 3380 0062 5DF8047B 	 ldr r7,[sp],#4
 3381              	.LCFI157:
 3382              	 .cfi_restore 7
 3383              	 .cfi_def_cfa_offset 0
 3384 0066 7047     	 bx lr
 3385              	.L199:
 3386              	 .align 2
 3387              	.L198:
 3388 0068 3F420F00 	 .word 999999
 3389              	 .cfi_endproc
 3390              	.LFE162:
 3392              	 .section .text.AUTOMATION_FB_GetRampStartValue,"ax",%progbits
 3393              	 .align 2
 3394              	 .global AUTOMATION_FB_GetRampStartValue
 3395              	 .thumb
 3396              	 .thumb_func
 3398              	AUTOMATION_FB_GetRampStartValue:
 3399              	.LFB163:
1006:../Dave/Generated/AUTOMATION/automation.c **** 
1007:../Dave/Generated/AUTOMATION/automation.c **** /* Get ramp start value for ramp */
1008:../Dave/Generated/AUTOMATION/automation.c **** int32_t AUTOMATION_FB_GetRampStartValue(AUTOMATION_FB_RAMPGEN_t* const ramphandle_ptr)
1009:../Dave/Generated/AUTOMATION/automation.c **** {
 3400              	 .loc 1 1009 0
 3401              	 .cfi_startproc
 3402              	 
 3403              	 
 3404              	 
 3405 0000 80B4     	 push {r7}
 3406              	.LCFI158:
 3407              	 .cfi_def_cfa_offset 4
 3408              	 .cfi_offset 7,-4
 3409 0002 85B0     	 sub sp,sp,#20
 3410              	.LCFI159:
 3411              	 .cfi_def_cfa_offset 24
 3412 0004 00AF     	 add r7,sp,#0
 3413              	.LCFI160:
 3414              	 .cfi_def_cfa_register 7
 3415 0006 7860     	 str r0,[r7,#4]
1010:../Dave/Generated/AUTOMATION/automation.c ****   int32_t target_value;
1011:../Dave/Generated/AUTOMATION/automation.c **** 
1012:../Dave/Generated/AUTOMATION/automation.c ****   target_value = (ramphandle_ptr->startset_t * (int32_t)(*ramphandle_ptr->scale_ptr)) / AUTOMATION_
 3416              	 .loc 1 1012 0
 3417 0008 7B68     	 ldr r3,[r7,#4]
 3418 000a 9B68     	 ldr r3,[r3,#8]
 3419 000c 7A68     	 ldr r2,[r7,#4]
 3420 000e 5269     	 ldr r2,[r2,#20]
 3421 0010 1268     	 ldr r2,[r2]
 3422 0012 02FB03F3 	 mul r3,r2,r3
 3423 0016 074A     	 ldr r2,.L202
 3424 0018 82FB0312 	 smull r1,r2,r2,r3
 3425 001c 1A44     	 add r2,r2,r3
 3426 001e 9213     	 asrs r2,r2,#14
 3427 0020 DB17     	 asrs r3,r3,#31
 3428 0022 D31A     	 subs r3,r2,r3
 3429 0024 FB60     	 str r3,[r7,#12]
1013:../Dave/Generated/AUTOMATION/automation.c **** 
1014:../Dave/Generated/AUTOMATION/automation.c ****   return target_value;
 3430              	 .loc 1 1014 0
 3431 0026 FB68     	 ldr r3,[r7,#12]
1015:../Dave/Generated/AUTOMATION/automation.c **** }
 3432              	 .loc 1 1015 0
 3433 0028 1846     	 mov r0,r3
 3434 002a 1437     	 adds r7,r7,#20
 3435              	.LCFI161:
 3436              	 .cfi_def_cfa_offset 4
 3437 002c BD46     	 mov sp,r7
 3438              	.LCFI162:
 3439              	 .cfi_def_cfa_register 13
 3440              	 
 3441 002e 5DF8047B 	 ldr r7,[sp],#4
 3442              	.LCFI163:
 3443              	 .cfi_restore 7
 3444              	 .cfi_def_cfa_offset 0
 3445 0032 7047     	 bx lr
 3446              	.L203:
 3447              	 .align 2
 3448              	.L202:
 3449 0034 03000180 	 .word -2147418109
 3450              	 .cfi_endproc
 3451              	.LFE163:
 3453              	 .section .text.AUTOMATION_FB_GetRampEndValue,"ax",%progbits
 3454              	 .align 2
 3455              	 .global AUTOMATION_FB_GetRampEndValue
 3456              	 .thumb
 3457              	 .thumb_func
 3459              	AUTOMATION_FB_GetRampEndValue:
 3460              	.LFB164:
1016:../Dave/Generated/AUTOMATION/automation.c **** 
1017:../Dave/Generated/AUTOMATION/automation.c **** /* Get ramp end value for ramp */
1018:../Dave/Generated/AUTOMATION/automation.c **** int32_t AUTOMATION_FB_GetRampEndValue(AUTOMATION_FB_RAMPGEN_t* const ramphandle_ptr)
1019:../Dave/Generated/AUTOMATION/automation.c **** {
 3461              	 .loc 1 1019 0
 3462              	 .cfi_startproc
 3463              	 
 3464              	 
 3465              	 
 3466 0000 80B4     	 push {r7}
 3467              	.LCFI164:
 3468              	 .cfi_def_cfa_offset 4
 3469              	 .cfi_offset 7,-4
 3470 0002 85B0     	 sub sp,sp,#20
 3471              	.LCFI165:
 3472              	 .cfi_def_cfa_offset 24
 3473 0004 00AF     	 add r7,sp,#0
 3474              	.LCFI166:
 3475              	 .cfi_def_cfa_register 7
 3476 0006 7860     	 str r0,[r7,#4]
1020:../Dave/Generated/AUTOMATION/automation.c ****   int32_t target_value;
1021:../Dave/Generated/AUTOMATION/automation.c **** 
1022:../Dave/Generated/AUTOMATION/automation.c ****   target_value = (*(ramphandle_ptr->endset_ptr) * (int32_t)(*ramphandle_ptr->scale_ptr)) / AUTOMATI
 3477              	 .loc 1 1022 0
 3478 0008 7B68     	 ldr r3,[r7,#4]
 3479 000a 5B68     	 ldr r3,[r3,#4]
 3480 000c 1B68     	 ldr r3,[r3]
 3481 000e 7A68     	 ldr r2,[r7,#4]
 3482 0010 5269     	 ldr r2,[r2,#20]
 3483 0012 1268     	 ldr r2,[r2]
 3484 0014 02FB03F3 	 mul r3,r2,r3
 3485 0018 074A     	 ldr r2,.L206
 3486 001a 82FB0312 	 smull r1,r2,r2,r3
 3487 001e 1A44     	 add r2,r2,r3
 3488 0020 9213     	 asrs r2,r2,#14
 3489 0022 DB17     	 asrs r3,r3,#31
 3490 0024 D31A     	 subs r3,r2,r3
 3491 0026 FB60     	 str r3,[r7,#12]
1023:../Dave/Generated/AUTOMATION/automation.c **** 
1024:../Dave/Generated/AUTOMATION/automation.c ****   return target_value;
 3492              	 .loc 1 1024 0
 3493 0028 FB68     	 ldr r3,[r7,#12]
1025:../Dave/Generated/AUTOMATION/automation.c **** }
 3494              	 .loc 1 1025 0
 3495 002a 1846     	 mov r0,r3
 3496 002c 1437     	 adds r7,r7,#20
 3497              	.LCFI167:
 3498              	 .cfi_def_cfa_offset 4
 3499 002e BD46     	 mov sp,r7
 3500              	.LCFI168:
 3501              	 .cfi_def_cfa_register 13
 3502              	 
 3503 0030 5DF8047B 	 ldr r7,[sp],#4
 3504              	.LCFI169:
 3505              	 .cfi_restore 7
 3506              	 .cfi_def_cfa_offset 0
 3507 0034 7047     	 bx lr
 3508              	.L207:
 3509 0036 00BF     	 .align 2
 3510              	.L206:
 3511 0038 03000180 	 .word -2147418109
 3512              	 .cfi_endproc
 3513              	.LFE164:
 3515              	 .section .text.AUTOMATION_FB_GetLinearRampSlewRate,"ax",%progbits
 3516              	 .align 2
 3517              	 .global AUTOMATION_FB_GetLinearRampSlewRate
 3518              	 .thumb
 3519              	 .thumb_func
 3521              	AUTOMATION_FB_GetLinearRampSlewRate:
 3522              	.LFB165:
1026:../Dave/Generated/AUTOMATION/automation.c **** 
1027:../Dave/Generated/AUTOMATION/automation.c **** /* Get ramp slew rate for linear ramp */
1028:../Dave/Generated/AUTOMATION/automation.c **** uint32_t AUTOMATION_FB_GetLinearRampSlewRate(AUTOMATION_FB_RAMPGEN_t* const ramphandle_ptr)
1029:../Dave/Generated/AUTOMATION/automation.c **** {
 3523              	 .loc 1 1029 0
 3524              	 .cfi_startproc
 3525              	 
 3526              	 
 3527              	 
 3528 0000 80B4     	 push {r7}
 3529              	.LCFI170:
 3530              	 .cfi_def_cfa_offset 4
 3531              	 .cfi_offset 7,-4
 3532 0002 85B0     	 sub sp,sp,#20
 3533              	.LCFI171:
 3534              	 .cfi_def_cfa_offset 24
 3535 0004 00AF     	 add r7,sp,#0
 3536              	.LCFI172:
 3537              	 .cfi_def_cfa_register 7
 3538 0006 7860     	 str r0,[r7,#4]
1030:../Dave/Generated/AUTOMATION/automation.c ****   uint32_t target_value;
1031:../Dave/Generated/AUTOMATION/automation.c ****   if (ramphandle_ptr->counter_t != 0U)
 3539              	 .loc 1 1031 0
 3540 0008 7B68     	 ldr r3,[r7,#4]
 3541 000a DB69     	 ldr r3,[r3,#28]
 3542 000c 002B     	 cmp r3,#0
 3543 000e 0ED0     	 beq .L209
1032:../Dave/Generated/AUTOMATION/automation.c ****   {
1033:../Dave/Generated/AUTOMATION/automation.c ****     target_value =
1034:../Dave/Generated/AUTOMATION/automation.c ****       ((ramphandle_ptr->config_ptr->time_constant * (*ramphandle_ptr->scale_ptr)) / ramphandle_ptr-
 3544              	 .loc 1 1034 0
 3545 0010 7B68     	 ldr r3,[r7,#4]
 3546 0012 DB6C     	 ldr r3,[r3,#76]
 3547 0014 DB68     	 ldr r3,[r3,#12]
 3548 0016 7A68     	 ldr r2,[r7,#4]
 3549 0018 5269     	 ldr r2,[r2,#20]
 3550 001a 1268     	 ldr r2,[r2]
 3551 001c 02FB03F2 	 mul r2,r2,r3
 3552 0020 7B68     	 ldr r3,[r7,#4]
 3553 0022 DB69     	 ldr r3,[r3,#28]
 3554 0024 B2FBF3F3 	 udiv r3,r2,r3
1033:../Dave/Generated/AUTOMATION/automation.c ****       ((ramphandle_ptr->config_ptr->time_constant * (*ramphandle_ptr->scale_ptr)) / ramphandle_ptr-
 3555              	 .loc 1 1033 0
 3556 0028 DB0B     	 lsrs r3,r3,#15
 3557 002a FB60     	 str r3,[r7,#12]
 3558 002c 01E0     	 b .L210
 3559              	.L209:
1035:../Dave/Generated/AUTOMATION/automation.c ****   }
1036:../Dave/Generated/AUTOMATION/automation.c ****   else
1037:../Dave/Generated/AUTOMATION/automation.c ****   {
1038:../Dave/Generated/AUTOMATION/automation.c ****     target_value = 0U;
 3560              	 .loc 1 1038 0
 3561 002e 0023     	 movs r3,#0
 3562 0030 FB60     	 str r3,[r7,#12]
 3563              	.L210:
1039:../Dave/Generated/AUTOMATION/automation.c ****   }
1040:../Dave/Generated/AUTOMATION/automation.c ****   return target_value;
 3564              	 .loc 1 1040 0
 3565 0032 FB68     	 ldr r3,[r7,#12]
1041:../Dave/Generated/AUTOMATION/automation.c **** 
1042:../Dave/Generated/AUTOMATION/automation.c **** }
 3566              	 .loc 1 1042 0
 3567 0034 1846     	 mov r0,r3
 3568 0036 1437     	 adds r7,r7,#20
 3569              	.LCFI173:
 3570              	 .cfi_def_cfa_offset 4
 3571 0038 BD46     	 mov sp,r7
 3572              	.LCFI174:
 3573              	 .cfi_def_cfa_register 13
 3574              	 
 3575 003a 5DF8047B 	 ldr r7,[sp],#4
 3576              	.LCFI175:
 3577              	 .cfi_restore 7
 3578              	 .cfi_def_cfa_offset 0
 3579 003e 7047     	 bx lr
 3580              	 .cfi_endproc
 3581              	.LFE165:
 3583              	 .section .text.AUTOMATION_FB_GetSRampSlewRate,"ax",%progbits
 3584              	 .align 2
 3585              	 .global AUTOMATION_FB_GetSRampSlewRate
 3586              	 .thumb
 3587              	 .thumb_func
 3589              	AUTOMATION_FB_GetSRampSlewRate:
 3590              	.LFB166:
1043:../Dave/Generated/AUTOMATION/automation.c **** 
1044:../Dave/Generated/AUTOMATION/automation.c **** /* Get ramp slew rate for S ramp */
1045:../Dave/Generated/AUTOMATION/automation.c **** uint32_t AUTOMATION_FB_GetSRampSlewRate(AUTOMATION_FB_RAMPGEN_t* const ramphandle_ptr)
1046:../Dave/Generated/AUTOMATION/automation.c **** {
 3591              	 .loc 1 1046 0
 3592              	 .cfi_startproc
 3593              	 
 3594              	 
 3595              	 
 3596 0000 80B4     	 push {r7}
 3597              	.LCFI176:
 3598              	 .cfi_def_cfa_offset 4
 3599              	 .cfi_offset 7,-4
 3600 0002 85B0     	 sub sp,sp,#20
 3601              	.LCFI177:
 3602              	 .cfi_def_cfa_offset 24
 3603 0004 00AF     	 add r7,sp,#0
 3604              	.LCFI178:
 3605              	 .cfi_def_cfa_register 7
 3606 0006 7860     	 str r0,[r7,#4]
1047:../Dave/Generated/AUTOMATION/automation.c ****   uint32_t target_value;
1048:../Dave/Generated/AUTOMATION/automation.c **** 
1049:../Dave/Generated/AUTOMATION/automation.c ****   if ((ramphandle_ptr->counter_t != 0U) && (ramphandle_ptr->config_ptr->time_constant != 0U))
 3607              	 .loc 1 1049 0
 3608 0008 7B68     	 ldr r3,[r7,#4]
 3609 000a DB69     	 ldr r3,[r3,#28]
 3610 000c 002B     	 cmp r3,#0
 3611 000e 17D0     	 beq .L213
 3612              	 .loc 1 1049 0 is_stmt 0 discriminator 1
 3613 0010 7B68     	 ldr r3,[r7,#4]
 3614 0012 DB6C     	 ldr r3,[r3,#76]
 3615 0014 DB68     	 ldr r3,[r3,#12]
 3616 0016 002B     	 cmp r3,#0
 3617 0018 12D0     	 beq .L213
1050:../Dave/Generated/AUTOMATION/automation.c ****   {
1051:../Dave/Generated/AUTOMATION/automation.c ****     target_value = (uint32_t)(
1052:../Dave/Generated/AUTOMATION/automation.c ****       (ramphandle_ptr->config_ptr->time_constant * (*ramphandle_ptr->scale_ptr))
 3618              	 .loc 1 1052 0 is_stmt 1
 3619 001a 7B68     	 ldr r3,[r7,#4]
 3620 001c DB6C     	 ldr r3,[r3,#76]
 3621 001e DB68     	 ldr r3,[r3,#12]
 3622 0020 7A68     	 ldr r2,[r7,#4]
 3623 0022 5269     	 ldr r2,[r2,#20]
 3624 0024 1268     	 ldr r2,[r2]
 3625 0026 02FB03F2 	 mul r2,r2,r3
1053:../Dave/Generated/AUTOMATION/automation.c ****           / (ramphandle_ptr->slewrate_counter_t * ramphandle_ptr->config_ptr->time_constant));
 3626              	 .loc 1 1053 0
 3627 002a 7B68     	 ldr r3,[r7,#4]
 3628 002c 9B6B     	 ldr r3,[r3,#56]
 3629 002e 7968     	 ldr r1,[r7,#4]
 3630 0030 C96C     	 ldr r1,[r1,#76]
 3631 0032 C968     	 ldr r1,[r1,#12]
 3632 0034 01FB03F3 	 mul r3,r1,r3
1051:../Dave/Generated/AUTOMATION/automation.c ****       (ramphandle_ptr->config_ptr->time_constant * (*ramphandle_ptr->scale_ptr))
 3633              	 .loc 1 1051 0
 3634 0038 B2FBF3F3 	 udiv r3,r2,r3
 3635 003c FB60     	 str r3,[r7,#12]
 3636 003e 01E0     	 b .L214
 3637              	.L213:
1054:../Dave/Generated/AUTOMATION/automation.c ****   }
1055:../Dave/Generated/AUTOMATION/automation.c ****   else
1056:../Dave/Generated/AUTOMATION/automation.c ****   {
1057:../Dave/Generated/AUTOMATION/automation.c ****     target_value = 0U;
 3638              	 .loc 1 1057 0
 3639 0040 0023     	 movs r3,#0
 3640 0042 FB60     	 str r3,[r7,#12]
 3641              	.L214:
1058:../Dave/Generated/AUTOMATION/automation.c ****   }
1059:../Dave/Generated/AUTOMATION/automation.c **** 
1060:../Dave/Generated/AUTOMATION/automation.c ****   return target_value;
 3642              	 .loc 1 1060 0
 3643 0044 FB68     	 ldr r3,[r7,#12]
1061:../Dave/Generated/AUTOMATION/automation.c **** }
 3644              	 .loc 1 1061 0
 3645 0046 1846     	 mov r0,r3
 3646 0048 1437     	 adds r7,r7,#20
 3647              	.LCFI179:
 3648              	 .cfi_def_cfa_offset 4
 3649 004a BD46     	 mov sp,r7
 3650              	.LCFI180:
 3651              	 .cfi_def_cfa_register 13
 3652              	 
 3653 004c 5DF8047B 	 ldr r7,[sp],#4
 3654              	.LCFI181:
 3655              	 .cfi_restore 7
 3656              	 .cfi_def_cfa_offset 0
 3657 0050 7047     	 bx lr
 3658              	 .cfi_endproc
 3659              	.LFE166:
 3661 0052 00BF     	 .section .text.AUTOMATION_FB_LinearRamp,"ax",%progbits
 3662              	 .align 2
 3663              	 .global AUTOMATION_FB_LinearRamp
 3664              	 .thumb
 3665              	 .thumb_func
 3667              	AUTOMATION_FB_LinearRamp:
 3668              	.LFB167:
1062:../Dave/Generated/AUTOMATION/automation.c **** 
1063:../Dave/Generated/AUTOMATION/automation.c **** /*
1064:../Dave/Generated/AUTOMATION/automation.c ****  * generates the linear ramp
1065:../Dave/Generated/AUTOMATION/automation.c ****  */
1066:../Dave/Generated/AUTOMATION/automation.c **** void AUTOMATION_FB_LinearRamp(AUTOMATION_FB_RAMPGEN_t* const ramphandle_ptr)
1067:../Dave/Generated/AUTOMATION/automation.c **** {
 3669              	 .loc 1 1067 0
 3670              	 .cfi_startproc
 3671              	 
 3672              	 
 3673              	 
 3674 0000 80B4     	 push {r7}
 3675              	.LCFI182:
 3676              	 .cfi_def_cfa_offset 4
 3677              	 .cfi_offset 7,-4
 3678 0002 83B0     	 sub sp,sp,#12
 3679              	.LCFI183:
 3680              	 .cfi_def_cfa_offset 16
 3681 0004 00AF     	 add r7,sp,#0
 3682              	.LCFI184:
 3683              	 .cfi_def_cfa_register 7
 3684 0006 7860     	 str r0,[r7,#4]
1068:../Dave/Generated/AUTOMATION/automation.c ****   ramphandle_ptr->counter_t = (ramphandle_ptr->counter * (*(ramphandle_ptr->scale_ptr))) >> AUTOMAT
 3685              	 .loc 1 1068 0
 3686 0008 7B68     	 ldr r3,[r7,#4]
 3687 000a 9B69     	 ldr r3,[r3,#24]
 3688 000c 7A68     	 ldr r2,[r7,#4]
 3689 000e 5269     	 ldr r2,[r2,#20]
 3690 0010 1268     	 ldr r2,[r2]
 3691 0012 02FB03F3 	 mul r3,r2,r3
 3692 0016 DA0B     	 lsrs r2,r3,#15
 3693 0018 7B68     	 ldr r3,[r7,#4]
 3694 001a DA61     	 str r2,[r3,#28]
1069:../Dave/Generated/AUTOMATION/automation.c ****   /*Update the velocity reference value.*/
1070:../Dave/Generated/AUTOMATION/automation.c ****   if (ramphandle_ptr->index > ramphandle_ptr->counter_t)
 3695              	 .loc 1 1070 0
 3696 001c 7B68     	 ldr r3,[r7,#4]
 3697 001e 1A6A     	 ldr r2,[r3,#32]
 3698 0020 7B68     	 ldr r3,[r7,#4]
 3699 0022 DB69     	 ldr r3,[r3,#28]
 3700 0024 9A42     	 cmp r2,r3
 3701 0026 1BD9     	 bls .L217
1071:../Dave/Generated/AUTOMATION/automation.c ****   {
1072:../Dave/Generated/AUTOMATION/automation.c ****     if (*(ramphandle_ptr->endset_ptr) > ramphandle_ptr->out_set_t)
 3702              	 .loc 1 1072 0
 3703 0028 7B68     	 ldr r3,[r7,#4]
 3704 002a 5B68     	 ldr r3,[r3,#4]
 3705 002c 1A68     	 ldr r2,[r3]
 3706 002e 7B68     	 ldr r3,[r7,#4]
 3707 0030 DB68     	 ldr r3,[r3,#12]
 3708 0032 9A42     	 cmp r2,r3
 3709 0034 05DD     	 ble .L218
1073:../Dave/Generated/AUTOMATION/automation.c ****     {
1074:../Dave/Generated/AUTOMATION/automation.c ****       ramphandle_ptr->out_set_t++;
 3710              	 .loc 1 1074 0
 3711 0036 7B68     	 ldr r3,[r7,#4]
 3712 0038 DB68     	 ldr r3,[r3,#12]
 3713 003a 5A1C     	 adds r2,r3,#1
 3714 003c 7B68     	 ldr r3,[r7,#4]
 3715 003e DA60     	 str r2,[r3,#12]
 3716 0040 0BE0     	 b .L219
 3717              	.L218:
1075:../Dave/Generated/AUTOMATION/automation.c ****     }
1076:../Dave/Generated/AUTOMATION/automation.c ****     else if (*(ramphandle_ptr->endset_ptr) < ramphandle_ptr->out_set_t)
 3718              	 .loc 1 1076 0
 3719 0042 7B68     	 ldr r3,[r7,#4]
 3720 0044 5B68     	 ldr r3,[r3,#4]
 3721 0046 1A68     	 ldr r2,[r3]
 3722 0048 7B68     	 ldr r3,[r7,#4]
 3723 004a DB68     	 ldr r3,[r3,#12]
 3724 004c 9A42     	 cmp r2,r3
 3725 004e 04DA     	 bge .L219
1077:../Dave/Generated/AUTOMATION/automation.c ****     {
1078:../Dave/Generated/AUTOMATION/automation.c ****       ramphandle_ptr->out_set_t--;
 3726              	 .loc 1 1078 0
 3727 0050 7B68     	 ldr r3,[r7,#4]
 3728 0052 DB68     	 ldr r3,[r3,#12]
 3729 0054 5A1E     	 subs r2,r3,#1
 3730 0056 7B68     	 ldr r3,[r7,#4]
 3731 0058 DA60     	 str r2,[r3,#12]
 3732              	.L219:
1079:../Dave/Generated/AUTOMATION/automation.c ****     }
1080:../Dave/Generated/AUTOMATION/automation.c ****     else
1081:../Dave/Generated/AUTOMATION/automation.c ****     {
1082:../Dave/Generated/AUTOMATION/automation.c **** 
1083:../Dave/Generated/AUTOMATION/automation.c ****     }
1084:../Dave/Generated/AUTOMATION/automation.c ****     ramphandle_ptr->index = 0U;
 3733              	 .loc 1 1084 0
 3734 005a 7B68     	 ldr r3,[r7,#4]
 3735 005c 0022     	 movs r2,#0
 3736 005e 1A62     	 str r2,[r3,#32]
 3737              	.L217:
1085:../Dave/Generated/AUTOMATION/automation.c ****   }
1086:../Dave/Generated/AUTOMATION/automation.c ****   ramphandle_ptr->index++;
 3738              	 .loc 1 1086 0
 3739 0060 7B68     	 ldr r3,[r7,#4]
 3740 0062 1B6A     	 ldr r3,[r3,#32]
 3741 0064 5A1C     	 adds r2,r3,#1
 3742 0066 7B68     	 ldr r3,[r7,#4]
 3743 0068 1A62     	 str r2,[r3,#32]
1087:../Dave/Generated/AUTOMATION/automation.c **** }
 3744              	 .loc 1 1087 0
 3745 006a 0C37     	 adds r7,r7,#12
 3746              	.LCFI185:
 3747              	 .cfi_def_cfa_offset 4
 3748 006c BD46     	 mov sp,r7
 3749              	.LCFI186:
 3750              	 .cfi_def_cfa_register 13
 3751              	 
 3752 006e 5DF8047B 	 ldr r7,[sp],#4
 3753              	.LCFI187:
 3754              	 .cfi_restore 7
 3755              	 .cfi_def_cfa_offset 0
 3756 0072 7047     	 bx lr
 3757              	 .cfi_endproc
 3758              	.LFE167:
 3760              	 .section .text.AUTOMATION_FB_ScurveRamp,"ax",%progbits
 3761              	 .align 2
 3762              	 .global AUTOMATION_FB_ScurveRamp
 3763              	 .thumb
 3764              	 .thumb_func
 3766              	AUTOMATION_FB_ScurveRamp:
 3767              	.LFB168:
1088:../Dave/Generated/AUTOMATION/automation.c **** 
1089:../Dave/Generated/AUTOMATION/automation.c **** /*
1090:../Dave/Generated/AUTOMATION/automation.c ****  * It generates the S-curve ramp
1091:../Dave/Generated/AUTOMATION/automation.c ****  */
1092:../Dave/Generated/AUTOMATION/automation.c **** void AUTOMATION_FB_ScurveRamp(AUTOMATION_FB_RAMPGEN_t* const ramphandle_ptr)
1093:../Dave/Generated/AUTOMATION/automation.c **** {
 3768              	 .loc 1 1093 0
 3769              	 .cfi_startproc
 3770              	 
 3771              	 
 3772 0000 80B5     	 push {r7,lr}
 3773              	.LCFI188:
 3774              	 .cfi_def_cfa_offset 8
 3775              	 .cfi_offset 7,-8
 3776              	 .cfi_offset 14,-4
 3777 0002 84B0     	 sub sp,sp,#16
 3778              	.LCFI189:
 3779              	 .cfi_def_cfa_offset 24
 3780 0004 00AF     	 add r7,sp,#0
 3781              	.LCFI190:
 3782              	 .cfi_def_cfa_register 7
 3783 0006 7860     	 str r0,[r7,#4]
1094:../Dave/Generated/AUTOMATION/automation.c ****   uint32_t difference;
1095:../Dave/Generated/AUTOMATION/automation.c ****   int32_t dir = -1;
 3784              	 .loc 1 1095 0
 3785 0008 4FF0FF33 	 mov r3,#-1
 3786 000c FB60     	 str r3,[r7,#12]
1096:../Dave/Generated/AUTOMATION/automation.c **** 
1097:../Dave/Generated/AUTOMATION/automation.c ****   ramphandle_ptr->counter_t = (ramphandle_ptr->counter * (*(ramphandle_ptr->scale_ptr))) >> AUTOMAT
 3787              	 .loc 1 1097 0
 3788 000e 7B68     	 ldr r3,[r7,#4]
 3789 0010 9B69     	 ldr r3,[r3,#24]
 3790 0012 7A68     	 ldr r2,[r7,#4]
 3791 0014 5269     	 ldr r2,[r2,#20]
 3792 0016 1268     	 ldr r2,[r2]
 3793 0018 02FB03F3 	 mul r3,r2,r3
 3794 001c DA0B     	 lsrs r2,r3,#15
 3795 001e 7B68     	 ldr r3,[r7,#4]
 3796 0020 DA61     	 str r2,[r3,#28]
1098:../Dave/Generated/AUTOMATION/automation.c ****   ramphandle_ptr->slewrate_counter_t = ((ramphandle_ptr->config_ptr->slewrate_counter) * (*(ramphan
 3797              	 .loc 1 1098 0
 3798 0022 7B68     	 ldr r3,[r7,#4]
 3799 0024 DB6C     	 ldr r3,[r3,#76]
 3800 0026 9B69     	 ldr r3,[r3,#24]
 3801 0028 7A68     	 ldr r2,[r7,#4]
 3802 002a 5269     	 ldr r2,[r2,#20]
 3803 002c 1268     	 ldr r2,[r2]
 3804 002e 02FB03F2 	 mul r2,r2,r3
1099:../Dave/Generated/AUTOMATION/automation.c ****       / (ramphandle_ptr->config_ptr->time_constant);
 3805              	 .loc 1 1099 0
 3806 0032 7B68     	 ldr r3,[r7,#4]
 3807 0034 DB6C     	 ldr r3,[r3,#76]
 3808 0036 DB68     	 ldr r3,[r3,#12]
 3809 0038 B2FBF3F2 	 udiv r2,r2,r3
1098:../Dave/Generated/AUTOMATION/automation.c ****   ramphandle_ptr->slewrate_counter_t = ((ramphandle_ptr->config_ptr->slewrate_counter) * (*(ramphan
 3810              	 .loc 1 1098 0
 3811 003c 7B68     	 ldr r3,[r7,#4]
 3812 003e 9A63     	 str r2,[r3,#56]
1100:../Dave/Generated/AUTOMATION/automation.c **** 
1101:../Dave/Generated/AUTOMATION/automation.c ****   /* Find the change in the end reference */
1102:../Dave/Generated/AUTOMATION/automation.c ****   difference = ((uint32_t) * ramphandle_ptr->endset_ptr - (uint32_t) ramphandle_ptr->prev_endset_t)
 3813              	 .loc 1 1102 0
 3814 0040 7B68     	 ldr r3,[r7,#4]
 3815 0042 5B68     	 ldr r3,[r3,#4]
 3816 0044 1B68     	 ldr r3,[r3]
 3817 0046 1A46     	 mov r2,r3
 3818 0048 7B68     	 ldr r3,[r7,#4]
 3819 004a 5B6A     	 ldr r3,[r3,#36]
 3820 004c D31A     	 subs r3,r2,r3
 3821 004e BB60     	 str r3,[r7,#8]
1103:../Dave/Generated/AUTOMATION/automation.c ****   if (difference != 0U)
 3822              	 .loc 1 1103 0
 3823 0050 BB68     	 ldr r3,[r7,#8]
 3824 0052 002B     	 cmp r3,#0
 3825 0054 6AD0     	 beq .L221
1104:../Dave/Generated/AUTOMATION/automation.c ****   {
1105:../Dave/Generated/AUTOMATION/automation.c ****     ramphandle_ptr->prev_endset_t = *(ramphandle_ptr->endset_ptr);
 3826              	 .loc 1 1105 0
 3827 0056 7B68     	 ldr r3,[r7,#4]
 3828 0058 5B68     	 ldr r3,[r3,#4]
 3829 005a 1A68     	 ldr r2,[r3]
 3830 005c 7B68     	 ldr r3,[r7,#4]
 3831 005e 5A62     	 str r2,[r3,#36]
1106:../Dave/Generated/AUTOMATION/automation.c ****     ramphandle_ptr->diff = *(ramphandle_ptr->endset_ptr) - ramphandle_ptr->out_set_t;
 3832              	 .loc 1 1106 0
 3833 0060 7B68     	 ldr r3,[r7,#4]
 3834 0062 5B68     	 ldr r3,[r3,#4]
 3835 0064 1A68     	 ldr r2,[r3]
 3836 0066 7B68     	 ldr r3,[r7,#4]
 3837 0068 DB68     	 ldr r3,[r3,#12]
 3838 006a D21A     	 subs r2,r2,r3
 3839 006c 7B68     	 ldr r3,[r7,#4]
 3840 006e 9A64     	 str r2,[r3,#72]
1107:../Dave/Generated/AUTOMATION/automation.c **** 
1108:../Dave/Generated/AUTOMATION/automation.c ****     /* for ramp down, calculate start and end values */
1109:../Dave/Generated/AUTOMATION/automation.c ****     if (ramphandle_ptr->diff < 0)
 3841              	 .loc 1 1109 0
 3842 0070 7B68     	 ldr r3,[r7,#4]
 3843 0072 9B6C     	 ldr r3,[r3,#72]
 3844 0074 002B     	 cmp r3,#0
 3845 0076 2FDA     	 bge .L222
1110:../Dave/Generated/AUTOMATION/automation.c ****     {
1111:../Dave/Generated/AUTOMATION/automation.c ****       dir = dir * ramphandle_ptr->diff;
 3846              	 .loc 1 1111 0
 3847 0078 7B68     	 ldr r3,[r7,#4]
 3848 007a 9A6C     	 ldr r2,[r3,#72]
 3849 007c FB68     	 ldr r3,[r7,#12]
 3850 007e 02FB03F3 	 mul r3,r2,r3
 3851 0082 FB60     	 str r3,[r7,#12]
1112:../Dave/Generated/AUTOMATION/automation.c ****       difference = ((uint32_t) dir);
 3852              	 .loc 1 1112 0
 3853 0084 FB68     	 ldr r3,[r7,#12]
 3854 0086 BB60     	 str r3,[r7,#8]
1113:../Dave/Generated/AUTOMATION/automation.c ****       ramphandle_ptr->linear_startvalue_t = *(ramphandle_ptr->endset_ptr)
 3855              	 .loc 1 1113 0
 3856 0088 7B68     	 ldr r3,[r7,#4]
 3857 008a 5B68     	 ldr r3,[r3,#4]
 3858 008c 1A68     	 ldr r2,[r3]
1114:../Dave/Generated/AUTOMATION/automation.c ****           + (((int32_t) difference * (int32_t) ramphandle_ptr->config_ptr->ratio) / 100);
 3859              	 .loc 1 1114 0
 3860 008e 7B68     	 ldr r3,[r7,#4]
 3861 0090 DB6C     	 ldr r3,[r3,#76]
 3862 0092 93F82230 	 ldrb r3,[r3,#34]
 3863 0096 1946     	 mov r1,r3
 3864 0098 BB68     	 ldr r3,[r7,#8]
 3865 009a 03FB01F3 	 mul r3,r3,r1
 3866 009e 2E49     	 ldr r1,.L225
 3867 00a0 81FB0301 	 smull r0,r1,r1,r3
 3868 00a4 4911     	 asrs r1,r1,#5
 3869 00a6 DB17     	 asrs r3,r3,#31
 3870 00a8 CB1A     	 subs r3,r1,r3
 3871 00aa 1A44     	 add r2,r2,r3
1113:../Dave/Generated/AUTOMATION/automation.c ****       ramphandle_ptr->linear_startvalue_t = *(ramphandle_ptr->endset_ptr)
 3872              	 .loc 1 1113 0
 3873 00ac 7B68     	 ldr r3,[r7,#4]
 3874 00ae 1A64     	 str r2,[r3,#64]
1115:../Dave/Generated/AUTOMATION/automation.c ****       ramphandle_ptr->linear_endvalue_t = (ramphandle_ptr->out_set_t)
 3875              	 .loc 1 1115 0
 3876 00b0 7B68     	 ldr r3,[r7,#4]
 3877 00b2 DA68     	 ldr r2,[r3,#12]
1116:../Dave/Generated/AUTOMATION/automation.c ****           - (((int32_t) difference * (int32_t) ramphandle_ptr->config_ptr->ratio) / 100);
 3878              	 .loc 1 1116 0
 3879 00b4 7B68     	 ldr r3,[r7,#4]
 3880 00b6 DB6C     	 ldr r3,[r3,#76]
 3881 00b8 93F82230 	 ldrb r3,[r3,#34]
 3882 00bc 1946     	 mov r1,r3
 3883 00be BB68     	 ldr r3,[r7,#8]
 3884 00c0 03FB01F3 	 mul r3,r3,r1
 3885 00c4 2449     	 ldr r1,.L225
 3886 00c6 81FB0301 	 smull r0,r1,r1,r3
 3887 00ca 4911     	 asrs r1,r1,#5
 3888 00cc DB17     	 asrs r3,r3,#31
 3889 00ce CB1A     	 subs r3,r1,r3
 3890 00d0 D21A     	 subs r2,r2,r3
1115:../Dave/Generated/AUTOMATION/automation.c ****       ramphandle_ptr->linear_endvalue_t = (ramphandle_ptr->out_set_t)
 3891              	 .loc 1 1115 0
 3892 00d2 7B68     	 ldr r3,[r7,#4]
 3893 00d4 5A64     	 str r2,[r3,#68]
 3894 00d6 29E0     	 b .L221
 3895              	.L222:
1117:../Dave/Generated/AUTOMATION/automation.c ****     }
1118:../Dave/Generated/AUTOMATION/automation.c ****     /* for ramp up, calculate start and end values */
1119:../Dave/Generated/AUTOMATION/automation.c ****     else
1120:../Dave/Generated/AUTOMATION/automation.c ****     {
1121:../Dave/Generated/AUTOMATION/automation.c ****       difference = (uint32_t) ramphandle_ptr->diff;
 3896              	 .loc 1 1121 0
 3897 00d8 7B68     	 ldr r3,[r7,#4]
 3898 00da 9B6C     	 ldr r3,[r3,#72]
 3899 00dc BB60     	 str r3,[r7,#8]
1122:../Dave/Generated/AUTOMATION/automation.c ****       ramphandle_ptr->linear_startvalue_t = (ramphandle_ptr->out_set_t)
 3900              	 .loc 1 1122 0
 3901 00de 7B68     	 ldr r3,[r7,#4]
 3902 00e0 DA68     	 ldr r2,[r3,#12]
1123:../Dave/Generated/AUTOMATION/automation.c ****           + (((int32_t) difference * (int32_t) ramphandle_ptr->config_ptr->ratio) / 100);
 3903              	 .loc 1 1123 0
 3904 00e2 7B68     	 ldr r3,[r7,#4]
 3905 00e4 DB6C     	 ldr r3,[r3,#76]
 3906 00e6 93F82230 	 ldrb r3,[r3,#34]
 3907 00ea 1946     	 mov r1,r3
 3908 00ec BB68     	 ldr r3,[r7,#8]
 3909 00ee 03FB01F3 	 mul r3,r3,r1
 3910 00f2 1949     	 ldr r1,.L225
 3911 00f4 81FB0301 	 smull r0,r1,r1,r3
 3912 00f8 4911     	 asrs r1,r1,#5
 3913 00fa DB17     	 asrs r3,r3,#31
 3914 00fc CB1A     	 subs r3,r1,r3
 3915 00fe 1A44     	 add r2,r2,r3
1122:../Dave/Generated/AUTOMATION/automation.c ****       ramphandle_ptr->linear_startvalue_t = (ramphandle_ptr->out_set_t)
 3916              	 .loc 1 1122 0
 3917 0100 7B68     	 ldr r3,[r7,#4]
 3918 0102 1A64     	 str r2,[r3,#64]
1124:../Dave/Generated/AUTOMATION/automation.c ****       ramphandle_ptr->linear_endvalue_t = *(ramphandle_ptr->endset_ptr)
 3919              	 .loc 1 1124 0
 3920 0104 7B68     	 ldr r3,[r7,#4]
 3921 0106 5B68     	 ldr r3,[r3,#4]
 3922 0108 1A68     	 ldr r2,[r3]
1125:../Dave/Generated/AUTOMATION/automation.c ****           - (((int32_t) difference * (int32_t) ramphandle_ptr->config_ptr->ratio) / 100);
 3923              	 .loc 1 1125 0
 3924 010a 7B68     	 ldr r3,[r7,#4]
 3925 010c DB6C     	 ldr r3,[r3,#76]
 3926 010e 93F82230 	 ldrb r3,[r3,#34]
 3927 0112 1946     	 mov r1,r3
 3928 0114 BB68     	 ldr r3,[r7,#8]
 3929 0116 03FB01F3 	 mul r3,r3,r1
 3930 011a 0F49     	 ldr r1,.L225
 3931 011c 81FB0301 	 smull r0,r1,r1,r3
 3932 0120 4911     	 asrs r1,r1,#5
 3933 0122 DB17     	 asrs r3,r3,#31
 3934 0124 CB1A     	 subs r3,r1,r3
 3935 0126 D21A     	 subs r2,r2,r3
1124:../Dave/Generated/AUTOMATION/automation.c ****       ramphandle_ptr->linear_endvalue_t = *(ramphandle_ptr->endset_ptr)
 3936              	 .loc 1 1124 0
 3937 0128 7B68     	 ldr r3,[r7,#4]
 3938 012a 5A64     	 str r2,[r3,#68]
 3939              	.L221:
1126:../Dave/Generated/AUTOMATION/automation.c ****     }
1127:../Dave/Generated/AUTOMATION/automation.c ****   }
1128:../Dave/Generated/AUTOMATION/automation.c **** 
1129:../Dave/Generated/AUTOMATION/automation.c ****   /*Update the target value.*/
1130:../Dave/Generated/AUTOMATION/automation.c ****   AUTOMATION_FB_LinearRamp(ramphandle_ptr);
 3940              	 .loc 1 1130 0
 3941 012c 7868     	 ldr r0,[r7,#4]
 3942 012e FFF7FEFF 	 bl AUTOMATION_FB_LinearRamp
1131:../Dave/Generated/AUTOMATION/automation.c **** 
1132:../Dave/Generated/AUTOMATION/automation.c ****   /*Update the acceleration value.*/
1133:../Dave/Generated/AUTOMATION/automation.c ****   if ((ramphandle_ptr->out_set_t < ramphandle_ptr->linear_startvalue_t)
 3943              	 .loc 1 1133 0
 3944 0132 7B68     	 ldr r3,[r7,#4]
 3945 0134 DA68     	 ldr r2,[r3,#12]
 3946 0136 7B68     	 ldr r3,[r7,#4]
 3947 0138 1B6C     	 ldr r3,[r3,#64]
 3948 013a 9A42     	 cmp r2,r3
 3949 013c 05DB     	 blt .L223
1134:../Dave/Generated/AUTOMATION/automation.c ****       || (ramphandle_ptr->out_set_t > ramphandle_ptr->linear_endvalue_t))
 3950              	 .loc 1 1134 0
 3951 013e 7B68     	 ldr r3,[r7,#4]
 3952 0140 DA68     	 ldr r2,[r3,#12]
 3953 0142 7B68     	 ldr r3,[r7,#4]
 3954 0144 5B6C     	 ldr r3,[r3,#68]
 3955 0146 9A42     	 cmp r2,r3
 3956 0148 02DD     	 ble .L220
 3957              	.L223:
1135:../Dave/Generated/AUTOMATION/automation.c ****   {
1136:../Dave/Generated/AUTOMATION/automation.c ****     AUTOMATION_FB_AccelerationRamp(ramphandle_ptr);
 3958              	 .loc 1 1136 0
 3959 014a 7868     	 ldr r0,[r7,#4]
 3960 014c FFF7FEFF 	 bl AUTOMATION_FB_AccelerationRamp
 3961              	.L220:
1137:../Dave/Generated/AUTOMATION/automation.c ****   }
1138:../Dave/Generated/AUTOMATION/automation.c **** }
 3962              	 .loc 1 1138 0
 3963 0150 1037     	 adds r7,r7,#16
 3964              	.LCFI191:
 3965              	 .cfi_def_cfa_offset 8
 3966 0152 BD46     	 mov sp,r7
 3967              	.LCFI192:
 3968              	 .cfi_def_cfa_register 13
 3969              	 
 3970 0154 80BD     	 pop {r7,pc}
 3971              	.L226:
 3972 0156 00BF     	 .align 2
 3973              	.L225:
 3974 0158 1F85EB51 	 .word 1374389535
 3975              	 .cfi_endproc
 3976              	.LFE168:
 3978              	 .section .text.AUTOMATION_FB_AccelerationRamp,"ax",%progbits
 3979              	 .align 2
 3980              	 .thumb
 3981              	 .thumb_func
 3983              	AUTOMATION_FB_AccelerationRamp:
 3984              	.LFB169:
1139:../Dave/Generated/AUTOMATION/automation.c **** 
1140:../Dave/Generated/AUTOMATION/automation.c **** static void AUTOMATION_FB_AccelerationRamp(AUTOMATION_FB_RAMPGEN_t* const ramphandle_ptr)
1141:../Dave/Generated/AUTOMATION/automation.c **** {
 3985              	 .loc 1 1141 0
 3986              	 .cfi_startproc
 3987              	 
 3988              	 
 3989              	 
 3990 0000 80B4     	 push {r7}
 3991              	.LCFI193:
 3992              	 .cfi_def_cfa_offset 4
 3993              	 .cfi_offset 7,-4
 3994 0002 85B0     	 sub sp,sp,#20
 3995              	.LCFI194:
 3996              	 .cfi_def_cfa_offset 24
 3997 0004 00AF     	 add r7,sp,#0
 3998              	.LCFI195:
 3999              	 .cfi_def_cfa_register 7
 4000 0006 7860     	 str r0,[r7,#4]
1142:../Dave/Generated/AUTOMATION/automation.c ****   int32_t dir = -1;
 4001              	 .loc 1 1142 0
 4002 0008 4FF0FF33 	 mov r3,#-1
 4003 000c FB60     	 str r3,[r7,#12]
1143:../Dave/Generated/AUTOMATION/automation.c ****   if (ramphandle_ptr->slewrate_index > ramphandle_ptr->slewrate_counter_t)
 4004              	 .loc 1 1143 0
 4005 000e 7B68     	 ldr r3,[r7,#4]
 4006 0010 DA6B     	 ldr r2,[r3,#60]
 4007 0012 7B68     	 ldr r3,[r7,#4]
 4008 0014 9B6B     	 ldr r3,[r3,#56]
 4009 0016 9A42     	 cmp r2,r3
 4010 0018 39D9     	 bls .L228
1144:../Dave/Generated/AUTOMATION/automation.c ****   {
1145:../Dave/Generated/AUTOMATION/automation.c ****     if ((ramphandle_ptr->slewrate_end) > ramphandle_ptr->slewrate_set_t)
 4011              	 .loc 1 1145 0
 4012 001a 7B68     	 ldr r3,[r7,#4]
 4013 001c 9A6A     	 ldr r2,[r3,#40]
 4014 001e 7B68     	 ldr r3,[r7,#4]
 4015 0020 5B6B     	 ldr r3,[r3,#52]
 4016 0022 9A42     	 cmp r2,r3
 4017 0024 05DD     	 ble .L229
1146:../Dave/Generated/AUTOMATION/automation.c ****     {
1147:../Dave/Generated/AUTOMATION/automation.c ****       ramphandle_ptr->slewrate_set_t++;
 4018              	 .loc 1 1147 0
 4019 0026 7B68     	 ldr r3,[r7,#4]
 4020 0028 5B6B     	 ldr r3,[r3,#52]
 4021 002a 5A1C     	 adds r2,r3,#1
 4022 002c 7B68     	 ldr r3,[r7,#4]
 4023 002e 5A63     	 str r2,[r3,#52]
 4024 0030 0AE0     	 b .L230
 4025              	.L229:
1148:../Dave/Generated/AUTOMATION/automation.c ****     }
1149:../Dave/Generated/AUTOMATION/automation.c ****     else if ((ramphandle_ptr->slewrate_end) < ramphandle_ptr->slewrate_set_t)
 4026              	 .loc 1 1149 0
 4027 0032 7B68     	 ldr r3,[r7,#4]
 4028 0034 9A6A     	 ldr r2,[r3,#40]
 4029 0036 7B68     	 ldr r3,[r7,#4]
 4030 0038 5B6B     	 ldr r3,[r3,#52]
 4031 003a 9A42     	 cmp r2,r3
 4032 003c 04DA     	 bge .L230
1150:../Dave/Generated/AUTOMATION/automation.c ****     {
1151:../Dave/Generated/AUTOMATION/automation.c ****       ramphandle_ptr->slewrate_set_t--;
 4033              	 .loc 1 1151 0
 4034 003e 7B68     	 ldr r3,[r7,#4]
 4035 0040 5B6B     	 ldr r3,[r3,#52]
 4036 0042 5A1E     	 subs r2,r3,#1
 4037 0044 7B68     	 ldr r3,[r7,#4]
 4038 0046 5A63     	 str r2,[r3,#52]
 4039              	.L230:
1152:../Dave/Generated/AUTOMATION/automation.c ****     }
1153:../Dave/Generated/AUTOMATION/automation.c ****     else
1154:../Dave/Generated/AUTOMATION/automation.c ****     {
1155:../Dave/Generated/AUTOMATION/automation.c ****       /*Do nothing*/
1156:../Dave/Generated/AUTOMATION/automation.c ****     }
1157:../Dave/Generated/AUTOMATION/automation.c ****     ramphandle_ptr->slewrate_index = 0U;
 4040              	 .loc 1 1157 0
 4041 0048 7B68     	 ldr r3,[r7,#4]
 4042 004a 0022     	 movs r2,#0
 4043 004c DA63     	 str r2,[r3,#60]
1158:../Dave/Generated/AUTOMATION/automation.c **** 
1159:../Dave/Generated/AUTOMATION/automation.c ****     dir = dir * ramphandle_ptr->slewrate_set_t;
 4044              	 .loc 1 1159 0
 4045 004e 7B68     	 ldr r3,[r7,#4]
 4046 0050 5A6B     	 ldr r2,[r3,#52]
 4047 0052 FB68     	 ldr r3,[r7,#12]
 4048 0054 02FB03F3 	 mul r3,r2,r3
 4049 0058 FB60     	 str r3,[r7,#12]
1160:../Dave/Generated/AUTOMATION/automation.c ****     /* Update the velocity counter value based upon acceleration value */
1161:../Dave/Generated/AUTOMATION/automation.c ****     if (ramphandle_ptr->slewrate_set_t < 0)
 4050              	 .loc 1 1161 0
 4051 005a 7B68     	 ldr r3,[r7,#4]
 4052 005c 5B6B     	 ldr r3,[r3,#52]
 4053 005e 002B     	 cmp r3,#0
 4054 0060 08DA     	 bge .L231
1162:../Dave/Generated/AUTOMATION/automation.c ****     {
1163:../Dave/Generated/AUTOMATION/automation.c ****       ramphandle_ptr->counter = ramphandle_ptr->config_ptr->time_constant / ((uint32_t) dir);
 4055              	 .loc 1 1163 0
 4056 0062 7B68     	 ldr r3,[r7,#4]
 4057 0064 DB6C     	 ldr r3,[r3,#76]
 4058 0066 DA68     	 ldr r2,[r3,#12]
 4059 0068 FB68     	 ldr r3,[r7,#12]
 4060 006a B2FBF3F2 	 udiv r2,r2,r3
 4061 006e 7B68     	 ldr r3,[r7,#4]
 4062 0070 9A61     	 str r2,[r3,#24]
 4063 0072 0CE0     	 b .L228
 4064              	.L231:
1164:../Dave/Generated/AUTOMATION/automation.c ****     }
1165:../Dave/Generated/AUTOMATION/automation.c ****     else if (ramphandle_ptr->slewrate_set_t != 0)
 4065              	 .loc 1 1165 0
 4066 0074 7B68     	 ldr r3,[r7,#4]
 4067 0076 5B6B     	 ldr r3,[r3,#52]
 4068 0078 002B     	 cmp r3,#0
 4069 007a 08D0     	 beq .L228
1166:../Dave/Generated/AUTOMATION/automation.c ****     {
1167:../Dave/Generated/AUTOMATION/automation.c ****       ramphandle_ptr->counter = ramphandle_ptr->config_ptr->time_constant / ((uint32_t) ramphandle_
 4070              	 .loc 1 1167 0
 4071 007c 7B68     	 ldr r3,[r7,#4]
 4072 007e DB6C     	 ldr r3,[r3,#76]
 4073 0080 DB68     	 ldr r3,[r3,#12]
 4074 0082 7A68     	 ldr r2,[r7,#4]
 4075 0084 526B     	 ldr r2,[r2,#52]
 4076 0086 B3FBF2F2 	 udiv r2,r3,r2
 4077 008a 7B68     	 ldr r3,[r7,#4]
 4078 008c 9A61     	 str r2,[r3,#24]
 4079              	.L228:
1168:../Dave/Generated/AUTOMATION/automation.c ****     }
1169:../Dave/Generated/AUTOMATION/automation.c ****     else
1170:../Dave/Generated/AUTOMATION/automation.c ****     {
1171:../Dave/Generated/AUTOMATION/automation.c ****       /*Do nothing*/
1172:../Dave/Generated/AUTOMATION/automation.c ****     }
1173:../Dave/Generated/AUTOMATION/automation.c ****   }
1174:../Dave/Generated/AUTOMATION/automation.c ****   ramphandle_ptr->slewrate_index++;
 4080              	 .loc 1 1174 0
 4081 008e 7B68     	 ldr r3,[r7,#4]
 4082 0090 DB6B     	 ldr r3,[r3,#60]
 4083 0092 5A1C     	 adds r2,r3,#1
 4084 0094 7B68     	 ldr r3,[r7,#4]
 4085 0096 DA63     	 str r2,[r3,#60]
1175:../Dave/Generated/AUTOMATION/automation.c **** 
1176:../Dave/Generated/AUTOMATION/automation.c ****   /* update the slewrate end value */
1177:../Dave/Generated/AUTOMATION/automation.c ****   if (ramphandle_ptr->diff < 0)
 4086              	 .loc 1 1177 0
 4087 0098 7B68     	 ldr r3,[r7,#4]
 4088 009a 9B6C     	 ldr r3,[r3,#72]
 4089 009c 002B     	 cmp r3,#0
 4090 009e 16DA     	 bge .L232
