   1              	 .syntax unified
   2              	 .cpu cortex-m4
   3              	 .eabi_attribute 27,3
   4              	 .fpu fpv4-sp-d16
   5              	 .eabi_attribute 20,1
   6              	 .eabi_attribute 21,1
   7              	 .eabi_attribute 23,3
   8              	 .eabi_attribute 24,1
   9              	 .eabi_attribute 25,1
  10              	 .eabi_attribute 26,1
  11              	 .eabi_attribute 30,6
  12              	 .eabi_attribute 34,1
  13              	 .eabi_attribute 18,4
  14              	 .thumb
  15              	 .file "ccu4_slice_config.c"
  16              	 .text
  17              	.Ltext0:
  18              	 .cfi_sections .debug_frame
  19              	 .section .text.CCU4_SLICE_CONFIG_GetAppVersion,"ax",%progbits
  20              	 .align 2
  21              	 .global CCU4_SLICE_CONFIG_GetAppVersion
  22              	 .thumb
  23              	 .thumb_func
  25              	CCU4_SLICE_CONFIG_GetAppVersion:
  26              	.LFB211:
  27              	 .file 1 "../Dave/Generated/CCU4_SLICE_CONFIG/ccu4_slice_config.c"
   1:../Dave/Generated/CCU4_SLICE_CONFIG/ccu4_slice_config.c **** /**
   2:../Dave/Generated/CCU4_SLICE_CONFIG/ccu4_slice_config.c ****  * @file ccu4_slice_config.c
   3:../Dave/Generated/CCU4_SLICE_CONFIG/ccu4_slice_config.c ****  * @date 2016-06-21
   4:../Dave/Generated/CCU4_SLICE_CONFIG/ccu4_slice_config.c ****  *
   5:../Dave/Generated/CCU4_SLICE_CONFIG/ccu4_slice_config.c ****  * NOTE:
   6:../Dave/Generated/CCU4_SLICE_CONFIG/ccu4_slice_config.c ****  * This file is generated by DAVE-4. Any manual modification done to this file will be lost when th
   7:../Dave/Generated/CCU4_SLICE_CONFIG/ccu4_slice_config.c ****  *
   8:../Dave/Generated/CCU4_SLICE_CONFIG/ccu4_slice_config.c ****  * @cond
   9:../Dave/Generated/CCU4_SLICE_CONFIG/ccu4_slice_config.c ****  **************************************************************************************************
  10:../Dave/Generated/CCU4_SLICE_CONFIG/ccu4_slice_config.c ****  * CCU4_SLICE_CONFIG v4.0.20 - Configures the properties of CCU4 timer.
  11:../Dave/Generated/CCU4_SLICE_CONFIG/ccu4_slice_config.c ****  * Copyright (c) 2015-2019, Infineon Technologies AG
  12:../Dave/Generated/CCU4_SLICE_CONFIG/ccu4_slice_config.c ****  * All rights reserved.
  13:../Dave/Generated/CCU4_SLICE_CONFIG/ccu4_slice_config.c ****  *
  14:../Dave/Generated/CCU4_SLICE_CONFIG/ccu4_slice_config.c ****  * Redistribution and use in source and binary forms, with or without modification,are permitted pr
  15:../Dave/Generated/CCU4_SLICE_CONFIG/ccu4_slice_config.c ****  * following conditions are met:
  16:../Dave/Generated/CCU4_SLICE_CONFIG/ccu4_slice_config.c ****  *
  17:../Dave/Generated/CCU4_SLICE_CONFIG/ccu4_slice_config.c ****  *   Redistributions of source code must retain the above copyright notice, this list of conditions
  18:../Dave/Generated/CCU4_SLICE_CONFIG/ccu4_slice_config.c ****  *   disclaimer.
  19:../Dave/Generated/CCU4_SLICE_CONFIG/ccu4_slice_config.c ****  *
  20:../Dave/Generated/CCU4_SLICE_CONFIG/ccu4_slice_config.c ****  *   Redistributions in binary form must reproduce the above copyright notice, this list of conditi
  21:../Dave/Generated/CCU4_SLICE_CONFIG/ccu4_slice_config.c ****  *   following disclaimer in the documentation and/or other materials provided with the distributio
  22:../Dave/Generated/CCU4_SLICE_CONFIG/ccu4_slice_config.c ****  *
  23:../Dave/Generated/CCU4_SLICE_CONFIG/ccu4_slice_config.c ****  *   Neither the name of the copyright holders nor the names of its contributors may be used to end
  24:../Dave/Generated/CCU4_SLICE_CONFIG/ccu4_slice_config.c ****  *   products derived from this software without specific prior written permission.
  25:../Dave/Generated/CCU4_SLICE_CONFIG/ccu4_slice_config.c ****  *
  26:../Dave/Generated/CCU4_SLICE_CONFIG/ccu4_slice_config.c ****  * THIS SOFTWARE IS PROVIDED BY THE COPYRIGHT HOLDERS AND CONTRIBUTORS "AS IS" AND ANY EXPRESS OR I
  27:../Dave/Generated/CCU4_SLICE_CONFIG/ccu4_slice_config.c ****  * INCLUDING, BUT NOT LIMITED TO, THE IMPLIED WARRANTIES OF MERCHANTABILITY AND FITNESS FOR A PARTI
  28:../Dave/Generated/CCU4_SLICE_CONFIG/ccu4_slice_config.c ****  * DISCLAIMED. IN NO EVENT SHALL THE COPYRIGHT HOLDER OR CONTRIBUTORS BE LIABLE  FOR ANY DIRECT, IN
  29:../Dave/Generated/CCU4_SLICE_CONFIG/ccu4_slice_config.c ****  * SPECIAL, EXEMPLARY, OR CONSEQUENTIAL DAMAGES (INCLUDING, BUT NOT LIMITED TO, PROCUREMENT OF SUBS
  30:../Dave/Generated/CCU4_SLICE_CONFIG/ccu4_slice_config.c ****  * SERVICES; LOSS OF USE, DATA, OR PROFITS; OR BUSINESS INTERRUPTION) HOWEVER CAUSED AND ON ANY THE
  31:../Dave/Generated/CCU4_SLICE_CONFIG/ccu4_slice_config.c ****  * WHETHER IN CONTRACT, STRICT LIABILITY,OR TORT (INCLUDING NEGLIGENCE OR OTHERWISE) ARISING IN ANY
  32:../Dave/Generated/CCU4_SLICE_CONFIG/ccu4_slice_config.c ****  * USE OF THIS SOFTWARE, EVEN IF ADVISED OF THE POSSIBILITY OF SUCH DAMAGE.
  33:../Dave/Generated/CCU4_SLICE_CONFIG/ccu4_slice_config.c ****  *
  34:../Dave/Generated/CCU4_SLICE_CONFIG/ccu4_slice_config.c ****  * To improve the quality of the software, users are encouraged to share modifications, enhancement
  35:../Dave/Generated/CCU4_SLICE_CONFIG/ccu4_slice_config.c ****  * with Infineon Technologies AG (dave@infineon.com).
  36:../Dave/Generated/CCU4_SLICE_CONFIG/ccu4_slice_config.c ****  **************************************************************************************************
  37:../Dave/Generated/CCU4_SLICE_CONFIG/ccu4_slice_config.c ****  *
  38:../Dave/Generated/CCU4_SLICE_CONFIG/ccu4_slice_config.c ****  * Change History
  39:../Dave/Generated/CCU4_SLICE_CONFIG/ccu4_slice_config.c ****  * --------------
  40:../Dave/Generated/CCU4_SLICE_CONFIG/ccu4_slice_config.c ****  *
  41:../Dave/Generated/CCU4_SLICE_CONFIG/ccu4_slice_config.c ****  * 2016-02-05:
  42:../Dave/Generated/CCU4_SLICE_CONFIG/ccu4_slice_config.c ****  *     - Initial version<br>
  43:../Dave/Generated/CCU4_SLICE_CONFIG/ccu4_slice_config.c ****  *
  44:../Dave/Generated/CCU4_SLICE_CONFIG/ccu4_slice_config.c ****  * 2016-06-21:
  45:../Dave/Generated/CCU4_SLICE_CONFIG/ccu4_slice_config.c ****  *     - First productive version
  46:../Dave/Generated/CCU4_SLICE_CONFIG/ccu4_slice_config.c ****  *
  47:../Dave/Generated/CCU4_SLICE_CONFIG/ccu4_slice_config.c ****  * 2016-07-20:
  48:../Dave/Generated/CCU4_SLICE_CONFIG/ccu4_slice_config.c ****  *     - UI is changed and code generation issues are fixed.
  49:../Dave/Generated/CCU4_SLICE_CONFIG/ccu4_slice_config.c ****  *
  50:../Dave/Generated/CCU4_SLICE_CONFIG/ccu4_slice_config.c ****  *
  51:../Dave/Generated/CCU4_SLICE_CONFIG/ccu4_slice_config.c ****  * @endcond
  52:../Dave/Generated/CCU4_SLICE_CONFIG/ccu4_slice_config.c ****  *
  53:../Dave/Generated/CCU4_SLICE_CONFIG/ccu4_slice_config.c ****  */
  54:../Dave/Generated/CCU4_SLICE_CONFIG/ccu4_slice_config.c **** 
  55:../Dave/Generated/CCU4_SLICE_CONFIG/ccu4_slice_config.c **** 
  56:../Dave/Generated/CCU4_SLICE_CONFIG/ccu4_slice_config.c **** /**************************************************************************************************
  57:../Dave/Generated/CCU4_SLICE_CONFIG/ccu4_slice_config.c ****  * HEADER FILES
  58:../Dave/Generated/CCU4_SLICE_CONFIG/ccu4_slice_config.c ****  **************************************************************************************************
  59:../Dave/Generated/CCU4_SLICE_CONFIG/ccu4_slice_config.c **** #include "ccu4_slice_config.h"
  60:../Dave/Generated/CCU4_SLICE_CONFIG/ccu4_slice_config.c **** 
  61:../Dave/Generated/CCU4_SLICE_CONFIG/ccu4_slice_config.c **** /**************************************************************************************************
  62:../Dave/Generated/CCU4_SLICE_CONFIG/ccu4_slice_config.c ****  * PRIVATE FUNCTION PROTOTYPES
  63:../Dave/Generated/CCU4_SLICE_CONFIG/ccu4_slice_config.c ****  **************************************************************************************************
  64:../Dave/Generated/CCU4_SLICE_CONFIG/ccu4_slice_config.c **** 
  65:../Dave/Generated/CCU4_SLICE_CONFIG/ccu4_slice_config.c **** /**************************************************************************************************
  66:../Dave/Generated/CCU4_SLICE_CONFIG/ccu4_slice_config.c ****  * API IMPLEMENTATION
  67:../Dave/Generated/CCU4_SLICE_CONFIG/ccu4_slice_config.c ****  **************************************************************************************************
  68:../Dave/Generated/CCU4_SLICE_CONFIG/ccu4_slice_config.c **** 
  69:../Dave/Generated/CCU4_SLICE_CONFIG/ccu4_slice_config.c **** /* API to retrieve App version info */
  70:../Dave/Generated/CCU4_SLICE_CONFIG/ccu4_slice_config.c **** DAVE_APP_VERSION_t CCU4_SLICE_CONFIG_GetAppVersion(void)
  71:../Dave/Generated/CCU4_SLICE_CONFIG/ccu4_slice_config.c **** {
  28              	 .loc 1 71 0
  29              	 .cfi_startproc
  30              	 
  31              	 
  32              	 
  33 0000 80B4     	 push {r7}
  34              	.LCFI0:
  35              	 .cfi_def_cfa_offset 4
  36              	 .cfi_offset 7,-4
  37 0002 83B0     	 sub sp,sp,#12
  38              	.LCFI1:
  39              	 .cfi_def_cfa_offset 16
  40 0004 00AF     	 add r7,sp,#0
  41              	.LCFI2:
  42              	 .cfi_def_cfa_register 7
  72:../Dave/Generated/CCU4_SLICE_CONFIG/ccu4_slice_config.c ****   DAVE_APP_VERSION_t version;
  73:../Dave/Generated/CCU4_SLICE_CONFIG/ccu4_slice_config.c **** 
  74:../Dave/Generated/CCU4_SLICE_CONFIG/ccu4_slice_config.c ****   version.major = CCU4_SLICE_CONFIG_MAJOR_VERSION;
  43              	 .loc 1 74 0
  44 0006 0423     	 movs r3,#4
  45 0008 3B70     	 strb r3,[r7]
  75:../Dave/Generated/CCU4_SLICE_CONFIG/ccu4_slice_config.c ****   version.minor = CCU4_SLICE_CONFIG_MINOR_VERSION;
  46              	 .loc 1 75 0
  47 000a 0023     	 movs r3,#0
  48 000c 7B70     	 strb r3,[r7,#1]
  76:../Dave/Generated/CCU4_SLICE_CONFIG/ccu4_slice_config.c ****   version.patch = CCU4_SLICE_CONFIG_PATCH_VERSION;
  49              	 .loc 1 76 0
  50 000e 1423     	 movs r3,#20
  51 0010 BB70     	 strb r3,[r7,#2]
  77:../Dave/Generated/CCU4_SLICE_CONFIG/ccu4_slice_config.c **** 
  78:../Dave/Generated/CCU4_SLICE_CONFIG/ccu4_slice_config.c ****   return (version);
  52              	 .loc 1 78 0
  53 0012 3B1D     	 adds r3,r7,#4
  54 0014 3A46     	 mov r2,r7
  55 0016 1268     	 ldr r2,[r2]
  56 0018 1146     	 mov r1,r2
  57 001a 1980     	 strh r1,[r3]
  58 001c 0233     	 adds r3,r3,#2
  59 001e 120C     	 lsrs r2,r2,#16
  60 0020 1A70     	 strb r2,[r3]
  61 0022 0023     	 movs r3,#0
  62 0024 3A79     	 ldrb r2,[r7,#4]
  63 0026 62F30703 	 bfi r3,r2,#0,#8
  64 002a 7A79     	 ldrb r2,[r7,#5]
  65 002c 62F30F23 	 bfi r3,r2,#8,#8
  66 0030 BA79     	 ldrb r2,[r7,#6]
  67 0032 62F31743 	 bfi r3,r2,#16,#8
  79:../Dave/Generated/CCU4_SLICE_CONFIG/ccu4_slice_config.c **** }
  68              	 .loc 1 79 0
  69 0036 1846     	 mov r0,r3
  70 0038 0C37     	 adds r7,r7,#12
  71              	.LCFI3:
  72              	 .cfi_def_cfa_offset 4
  73 003a BD46     	 mov sp,r7
  74              	.LCFI4:
  75              	 .cfi_def_cfa_register 13
  76              	 
  77 003c 5DF8047B 	 ldr r7,[sp],#4
  78              	.LCFI5:
  79              	 .cfi_restore 7
  80              	 .cfi_def_cfa_offset 0
  81 0040 7047     	 bx lr
  82              	 .cfi_endproc
  83              	.LFE211:
  85 0042 00BF     	 .section .text.CCU4_SLICE_CONFIG_Init,"ax",%progbits
  86              	 .align 2
  87              	 .global CCU4_SLICE_CONFIG_Init
  88              	 .thumb
  89              	 .thumb_func
  91              	CCU4_SLICE_CONFIG_Init:
  92              	.LFB212:
  80:../Dave/Generated/CCU4_SLICE_CONFIG/ccu4_slice_config.c **** 
  81:../Dave/Generated/CCU4_SLICE_CONFIG/ccu4_slice_config.c **** /* API to initialize the CCU4 slice */
  82:../Dave/Generated/CCU4_SLICE_CONFIG/ccu4_slice_config.c **** CCU4_SLICE_CONFIG_STATUS_t CCU4_SLICE_CONFIG_Init(const CCU4_SLICE_CONFIG_t *const handle_ptr)
  83:../Dave/Generated/CCU4_SLICE_CONFIG/ccu4_slice_config.c **** {
  93              	 .loc 1 83 0
  94              	 .cfi_startproc
  95              	 
  96              	 
  97 0000 80B5     	 push {r7,lr}
  98              	.LCFI6:
  99              	 .cfi_def_cfa_offset 8
 100              	 .cfi_offset 7,-8
 101              	 .cfi_offset 14,-4
 102 0002 82B0     	 sub sp,sp,#8
 103              	.LCFI7:
 104              	 .cfi_def_cfa_offset 16
 105 0004 00AF     	 add r7,sp,#0
 106              	.LCFI8:
 107              	 .cfi_def_cfa_register 7
 108 0006 7860     	 str r0,[r7,#4]
  84:../Dave/Generated/CCU4_SLICE_CONFIG/ccu4_slice_config.c ****   return handle_ptr->init();
 109              	 .loc 1 84 0
 110 0008 7B68     	 ldr r3,[r7,#4]
 111 000a 1B68     	 ldr r3,[r3]
 112 000c 9847     	 blx r3
 113 000e 0346     	 mov r3,r0
  85:../Dave/Generated/CCU4_SLICE_CONFIG/ccu4_slice_config.c **** }
 114              	 .loc 1 85 0
 115 0010 1846     	 mov r0,r3
 116 0012 0837     	 adds r7,r7,#8
 117              	.LCFI9:
 118              	 .cfi_def_cfa_offset 8
 119 0014 BD46     	 mov sp,r7
 120              	.LCFI10:
 121              	 .cfi_def_cfa_register 13
 122              	 
 123 0016 80BD     	 pop {r7,pc}
 124              	 .cfi_endproc
 125              	.LFE212:
 127              	 .text
 128              	.Letext0:
 129              	 .file 2 "c:\\users\\pescatore\\switchdrive\\private\\konzept\\mcu for gate driver\\dave_4-4-2_64bit_2018-02-23\\dave-ide-4.4.2-64bit\\eclipse\\arm-gcc-49\\arm-none-eabi\\include\\machine\\_default_types.h"
 130              	 .file 3 "c:\\users\\pescatore\\switchdrive\\private\\konzept\\mcu for gate driver\\dave_4-4-2_64bit_2018-02-23\\dave-ide-4.4.2-64bit\\eclipse\\arm-gcc-49\\arm-none-eabi\\include\\stdint.h"
 131              	 .file 4 "F:/GitHub Projects/FH Luzern/BAT/BAT/Libraries/CMSIS/Infineon/XMC4400_series/Include/XMC4400.h"
 132              	 .file 5 "F:/GitHub Projects/FH Luzern/BAT/BAT/Libraries/XMCLib/inc/xmc_ccu4.h"
 133              	 .file 6 "F:/GitHub Projects/FH Luzern/BAT/BAT/Libraries/XMCLib/inc/xmc4_scu.h"
 134              	 .file 7 "F:/GitHub Projects/FH Luzern/BAT/BAT/Dave/Generated/DAVE_Common.h"
 135              	 .file 8 "../Dave/Generated/CCU4_SLICE_CONFIG/../GLOBAL_CCU4/global_ccu4.h"
 136              	 .file 9 "../Dave/Generated/CCU4_SLICE_CONFIG/ccu4_slice_config.h"
 137              	 .file 10 "F:/GitHub Projects/FH Luzern/BAT/BAT/Libraries/CMSIS/Include/core_cm4.h"
 138              	 .file 11 "F:/GitHub Projects/FH Luzern/BAT/BAT/Libraries/CMSIS/Infineon/XMC4400_series/Include/system_XMC4400.h"