   1              	 .syntax unified
   2              	 .cpu cortex-m4
   3              	 .eabi_attribute 27,3
   4              	 .fpu fpv4-sp-d16
   5              	 .eabi_attribute 20,1
   6              	 .eabi_attribute 21,1
   7              	 .eabi_attribute 23,3
   8              	 .eabi_attribute 24,1
   9              	 .eabi_attribute 25,1
  10              	 .eabi_attribute 26,1
  11              	 .eabi_attribute 30,6
  12              	 .eabi_attribute 34,1
  13              	 .eabi_attribute 18,4
  14              	 .thumb
  15              	 .file "acim_freq_ctrl_control.c"
  16              	 .text
  17              	.Ltext0:
  18              	 .cfi_sections .debug_frame
  19              	 .section .text.CCU80_3_IRQHandler,"ax",%progbits
  20              	 .align 2
  21              	 .global CCU80_3_IRQHandler
  22              	 .thumb
  23              	 .thumb_func
  25              	CCU80_3_IRQHandler:
  26              	.LFB239:
  27              	 .file 1 "../Dave/Generated/ACIM_FREQ_CTRL/acim_freq_ctrl_control.c"
   1:../Dave/Generated/ACIM_FREQ_CTRL/acim_freq_ctrl_control.c **** /**************************************************************************************************
   2:../Dave/Generated/ACIM_FREQ_CTRL/acim_freq_ctrl_control.c **** * DAVE APP Name : ACIM_FREQ_CTRL       APP Version: 4.0.8
   3:../Dave/Generated/ACIM_FREQ_CTRL/acim_freq_ctrl_control.c **** *
   4:../Dave/Generated/ACIM_FREQ_CTRL/acim_freq_ctrl_control.c **** * NOTE:
   5:../Dave/Generated/ACIM_FREQ_CTRL/acim_freq_ctrl_control.c **** * This file is generated by DAVE. Any manual modification done to this file will be lost when the c
   6:../Dave/Generated/ACIM_FREQ_CTRL/acim_freq_ctrl_control.c **** ***************************************************************************************************
   7:../Dave/Generated/ACIM_FREQ_CTRL/acim_freq_ctrl_control.c **** 
   8:../Dave/Generated/ACIM_FREQ_CTRL/acim_freq_ctrl_control.c **** /**
   9:../Dave/Generated/ACIM_FREQ_CTRL/acim_freq_ctrl_control.c ****  * @cond
  10:../Dave/Generated/ACIM_FREQ_CTRL/acim_freq_ctrl_control.c ****  **************************************************************************************************
  11:../Dave/Generated/ACIM_FREQ_CTRL/acim_freq_ctrl_control.c ****  *
  12:../Dave/Generated/ACIM_FREQ_CTRL/acim_freq_ctrl_control.c ****  * Copyright (c) 2015, Infineon Technologies AG
  13:../Dave/Generated/ACIM_FREQ_CTRL/acim_freq_ctrl_control.c ****  * All rights reserved.
  14:../Dave/Generated/ACIM_FREQ_CTRL/acim_freq_ctrl_control.c ****  *
  15:../Dave/Generated/ACIM_FREQ_CTRL/acim_freq_ctrl_control.c ****  * Redistribution and use in source and binary forms, with or without modification,are permitted pr
  16:../Dave/Generated/ACIM_FREQ_CTRL/acim_freq_ctrl_control.c ****  * following conditions are met:
  17:../Dave/Generated/ACIM_FREQ_CTRL/acim_freq_ctrl_control.c ****  *
  18:../Dave/Generated/ACIM_FREQ_CTRL/acim_freq_ctrl_control.c ****  *   Redistributions of source code must retain the above copyright notice, this list of conditions
  19:../Dave/Generated/ACIM_FREQ_CTRL/acim_freq_ctrl_control.c ****  *   disclaimer.
  20:../Dave/Generated/ACIM_FREQ_CTRL/acim_freq_ctrl_control.c ****  *
  21:../Dave/Generated/ACIM_FREQ_CTRL/acim_freq_ctrl_control.c ****  *   Redistributions in binary form must reproduce the above copyright notice, this list of conditi
  22:../Dave/Generated/ACIM_FREQ_CTRL/acim_freq_ctrl_control.c ****  *   following disclaimer in the documentation and/or other materials provided with the distributio
  23:../Dave/Generated/ACIM_FREQ_CTRL/acim_freq_ctrl_control.c ****  *
  24:../Dave/Generated/ACIM_FREQ_CTRL/acim_freq_ctrl_control.c ****  *   Neither the name of the copyright holders nor the names of its contributors may be used to end
  25:../Dave/Generated/ACIM_FREQ_CTRL/acim_freq_ctrl_control.c ****  *   products derived from this software without specific prior written permission.
  26:../Dave/Generated/ACIM_FREQ_CTRL/acim_freq_ctrl_control.c ****  *
  27:../Dave/Generated/ACIM_FREQ_CTRL/acim_freq_ctrl_control.c ****  * THIS SOFTWARE IS PROVIDED BY THE COPYRIGHT HOLDERS AND CONTRIBUTORS "AS IS" AND ANY EXPRESS OR I
  28:../Dave/Generated/ACIM_FREQ_CTRL/acim_freq_ctrl_control.c ****  * INCLUDING, BUT NOT LIMITED TO, THE IMPLIED WARRANTIES OF MERCHANTABILITY AND FITNESS FOR A PARTI
  29:../Dave/Generated/ACIM_FREQ_CTRL/acim_freq_ctrl_control.c ****  * DISCLAIMED. IN NO EVENT SHALL THE COPYRIGHT HOLDER OR CONTRIBUTORS BE LIABLE  FOR ANY DIRECT, IN
  30:../Dave/Generated/ACIM_FREQ_CTRL/acim_freq_ctrl_control.c ****  * SPECIAL, EXEMPLARY, OR CONSEQUENTIAL DAMAGES (INCLUDING, BUT NOT LIMITED TO, PROCUREMENT OF SUBS
  31:../Dave/Generated/ACIM_FREQ_CTRL/acim_freq_ctrl_control.c ****  * SERVICES; LOSS OF USE, DATA, OR PROFITS; OR BUSINESS INTERRUPTION) HOWEVER CAUSED AND ON ANY THE
  32:../Dave/Generated/ACIM_FREQ_CTRL/acim_freq_ctrl_control.c ****  * WHETHER IN CONTRACT, STRICT LIABILITY,OR TORT (INCLUDING NEGLIGENCE OR OTHERWISE) ARISING IN ANY
  33:../Dave/Generated/ACIM_FREQ_CTRL/acim_freq_ctrl_control.c ****  * USE OF THIS SOFTWARE, EVEN IF ADVISED OF THE POSSIBILITY OF SUCH DAMAGE.
  34:../Dave/Generated/ACIM_FREQ_CTRL/acim_freq_ctrl_control.c ****  *
  35:../Dave/Generated/ACIM_FREQ_CTRL/acim_freq_ctrl_control.c ****  * To improve the quality of the software, users are encouraged to share modifications, enhancement
  36:../Dave/Generated/ACIM_FREQ_CTRL/acim_freq_ctrl_control.c ****  * with Infineon Technologies AG (dave@infineon.com).
  37:../Dave/Generated/ACIM_FREQ_CTRL/acim_freq_ctrl_control.c ****  **************************************************************************************************
  38:../Dave/Generated/ACIM_FREQ_CTRL/acim_freq_ctrl_control.c ****  *
  39:../Dave/Generated/ACIM_FREQ_CTRL/acim_freq_ctrl_control.c ****  * Change History
  40:../Dave/Generated/ACIM_FREQ_CTRL/acim_freq_ctrl_control.c ****  * --------------
  41:../Dave/Generated/ACIM_FREQ_CTRL/acim_freq_ctrl_control.c ****  *
  42:../Dave/Generated/ACIM_FREQ_CTRL/acim_freq_ctrl_control.c ****  * 2015-02-16:
  43:../Dave/Generated/ACIM_FREQ_CTRL/acim_freq_ctrl_control.c ****  *     - Initial version
  44:../Dave/Generated/ACIM_FREQ_CTRL/acim_freq_ctrl_control.c ****  * 2015-10-08:
  45:../Dave/Generated/ACIM_FREQ_CTRL/acim_freq_ctrl_control.c ****  *     - Amplitude scaling is matched with PWM_SVM APP amplitude scaling
  46:../Dave/Generated/ACIM_FREQ_CTRL/acim_freq_ctrl_control.c ****  * @endcond
  47:../Dave/Generated/ACIM_FREQ_CTRL/acim_freq_ctrl_control.c ****  *
  48:../Dave/Generated/ACIM_FREQ_CTRL/acim_freq_ctrl_control.c ****  */
  49:../Dave/Generated/ACIM_FREQ_CTRL/acim_freq_ctrl_control.c **** /**************************************************************************************************
  50:../Dave/Generated/ACIM_FREQ_CTRL/acim_freq_ctrl_control.c ****  * HEADER FILES
  51:../Dave/Generated/ACIM_FREQ_CTRL/acim_freq_ctrl_control.c ****  **************************************************************************************************
  52:../Dave/Generated/ACIM_FREQ_CTRL/acim_freq_ctrl_control.c **** #include "acim_freq_ctrl.h"
  53:../Dave/Generated/ACIM_FREQ_CTRL/acim_freq_ctrl_control.c **** 
  54:../Dave/Generated/ACIM_FREQ_CTRL/acim_freq_ctrl_control.c **** void ACIM_FREQ_CTRL_0_PrimaryControlLoop(ACIM_FREQ_CTRL_t*const HandlePtr);  
  55:../Dave/Generated/ACIM_FREQ_CTRL/acim_freq_ctrl_control.c **** void ACIM_FREQ_CTRL_0_SetValueProcessing(ACIM_FREQ_CTRL_t*const HandlePtr);
  56:../Dave/Generated/ACIM_FREQ_CTRL/acim_freq_ctrl_control.c **** 
  57:../Dave/Generated/ACIM_FREQ_CTRL/acim_freq_ctrl_control.c **** void ACIM_FREQ_CTRL_0_FastControlLoop_ISR()
  58:../Dave/Generated/ACIM_FREQ_CTRL/acim_freq_ctrl_control.c **** {  
  28              	 .loc 1 58 0
  29              	 .cfi_startproc
  30              	 
  31              	 
  32 0000 80B5     	 push {r7,lr}
  33              	.LCFI0:
  34              	 .cfi_def_cfa_offset 8
  35              	 .cfi_offset 7,-8
  36              	 .cfi_offset 14,-4
  37 0002 82B0     	 sub sp,sp,#8
  38              	.LCFI1:
  39              	 .cfi_def_cfa_offset 16
  40 0004 00AF     	 add r7,sp,#0
  41              	.LCFI2:
  42              	 .cfi_def_cfa_register 7
  59:../Dave/Generated/ACIM_FREQ_CTRL/acim_freq_ctrl_control.c ****   int32_t temp_angle;
  60:../Dave/Generated/ACIM_FREQ_CTRL/acim_freq_ctrl_control.c **** /************************* Fast Control Loop ***************************/
  61:../Dave/Generated/ACIM_FREQ_CTRL/acim_freq_ctrl_control.c **** 
  62:../Dave/Generated/ACIM_FREQ_CTRL/acim_freq_ctrl_control.c ****     if(ACIM_FREQ_CTRL_0.fcl_div_value == ACIM_FREQ_CTRL_0.acim_config_ptr->fcl_divider)
  43              	 .loc 1 62 0
  44 0006 354B     	 ldr r3,.L7
  45 0008 93F8A620 	 ldrb r2,[r3,#166]
  46 000c 334B     	 ldr r3,.L7
  47 000e 1B68     	 ldr r3,[r3]
  48 0010 1B7D     	 ldrb r3,[r3,#20]
  49 0012 9A42     	 cmp r2,r3
  50 0014 3BD1     	 bne .L2
  63:../Dave/Generated/ACIM_FREQ_CTRL/acim_freq_ctrl_control.c ****     {
  64:../Dave/Generated/ACIM_FREQ_CTRL/acim_freq_ctrl_control.c ****       ACIM_FREQ_CTRL_0.fcl_div_value = 1;
  51              	 .loc 1 64 0
  52 0016 314B     	 ldr r3,.L7
  53 0018 0122     	 movs r2,#1
  54 001a 83F8A620 	 strb r2,[r3,#166]
  65:../Dave/Generated/ACIM_FREQ_CTRL/acim_freq_ctrl_control.c **** 
  66:../Dave/Generated/ACIM_FREQ_CTRL/acim_freq_ctrl_control.c ****       if(ACIM_FREQ_CTRL_0.msm_state != ACIM_FREQ_CTRL_MSM_BOOTSTRAP)
  55              	 .loc 1 66 0
  56 001e 2F4B     	 ldr r3,.L7
  57 0020 93F84D30 	 ldrb r3,[r3,#77]
  58 0024 092B     	 cmp r3,#9
  59 0026 3AD0     	 beq .L4
  67:../Dave/Generated/ACIM_FREQ_CTRL/acim_freq_ctrl_control.c ****       {
  68:../Dave/Generated/ACIM_FREQ_CTRL/acim_freq_ctrl_control.c **** 
  69:../Dave/Generated/ACIM_FREQ_CTRL/acim_freq_ctrl_control.c ****         /*Current is 0 because current measurement is disabled.*/
  70:../Dave/Generated/ACIM_FREQ_CTRL/acim_freq_ctrl_control.c ****         ACIM_FREQ_CTRL_0.motor_current = 0U;
  60              	 .loc 1 70 0
  61 0028 2C4B     	 ldr r3,.L7
  62 002a 0022     	 movs r2,#0
  63 002c C3F89820 	 str r2,[r3,#152]
  71:../Dave/Generated/ACIM_FREQ_CTRL/acim_freq_ctrl_control.c **** 
  72:../Dave/Generated/ACIM_FREQ_CTRL/acim_freq_ctrl_control.c ****         /*Updating input of v/f control*/
  73:../Dave/Generated/ACIM_FREQ_CTRL/acim_freq_ctrl_control.c ****         ACIM_FREQ_CTRL_0.vf_control_ptr->input = (int32_t)*ACIM_FREQ_CTRL_0.speed_set_ptr;
  64              	 .loc 1 73 0
  65 0030 2A4B     	 ldr r3,.L7
  66 0032 9B68     	 ldr r3,[r3,#8]
  67 0034 294A     	 ldr r2,.L7
  68 0036 126F     	 ldr r2,[r2,#112]
  69 0038 1268     	 ldr r2,[r2]
  70 003a 9A60     	 str r2,[r3,#8]
  74:../Dave/Generated/ACIM_FREQ_CTRL/acim_freq_ctrl_control.c **** 
  75:../Dave/Generated/ACIM_FREQ_CTRL/acim_freq_ctrl_control.c ****         /*amplitude calculation*/
  76:../Dave/Generated/ACIM_FREQ_CTRL/acim_freq_ctrl_control.c ****         ACIM_FREQ_CTRL_Amplitude_Calculation(&ACIM_FREQ_CTRL_0);
  71              	 .loc 1 76 0
  72 003c 2748     	 ldr r0,.L7
  73 003e FFF7FEFF 	 bl ACIM_FREQ_CTRL_Amplitude_Calculation
  77:../Dave/Generated/ACIM_FREQ_CTRL/acim_freq_ctrl_control.c **** 
  78:../Dave/Generated/ACIM_FREQ_CTRL/acim_freq_ctrl_control.c ****         /*angle calculation*/
  79:../Dave/Generated/ACIM_FREQ_CTRL/acim_freq_ctrl_control.c ****         ACIM_FREQ_CTRL_AngleRamp(&ACIM_FREQ_CTRL_0);
  74              	 .loc 1 79 0
  75 0042 2648     	 ldr r0,.L7
  76 0044 FFF7FEFF 	 bl ACIM_FREQ_CTRL_AngleRamp
  80:../Dave/Generated/ACIM_FREQ_CTRL/acim_freq_ctrl_control.c **** 
  81:../Dave/Generated/ACIM_FREQ_CTRL/acim_freq_ctrl_control.c **** 
  82:../Dave/Generated/ACIM_FREQ_CTRL/acim_freq_ctrl_control.c ****         /*Update Modulation Angle and Amplitude before calling svm*/
  83:../Dave/Generated/ACIM_FREQ_CTRL/acim_freq_ctrl_control.c ****         temp_angle = ACIM_FREQ_CTRL_0.vf_control_ptr->output_angle + (ACIM_FREQ_CTRL_0.angle_offset
  77              	 .loc 1 83 0
  78 0048 244B     	 ldr r3,.L7
  79 004a 9B68     	 ldr r3,[r3,#8]
  80 004c DB68     	 ldr r3,[r3,#12]
  81 004e 1946     	 mov r1,r3
  82 0050 224B     	 ldr r3,.L7
  83 0052 9B6D     	 ldr r3,[r3,#88]
  84 0054 214A     	 ldr r2,.L7
  85 0056 92F8A420 	 ldrb r2,[r2,#164]
  86 005a 52B2     	 sxtb r2,r2
  87 005c 02FB03F3 	 mul r3,r2,r3
  88 0060 0B44     	 add r3,r3,r1
  89 0062 7B60     	 str r3,[r7,#4]
  84:../Dave/Generated/ACIM_FREQ_CTRL/acim_freq_ctrl_control.c ****         ACIM_FREQ_CTRL_0.angle     = (uint32_t)(temp_angle);
  90              	 .loc 1 84 0
  91 0064 7B68     	 ldr r3,[r7,#4]
  92 0066 1D4A     	 ldr r2,.L7
  93 0068 D367     	 str r3,[r2,#124]
  85:../Dave/Generated/ACIM_FREQ_CTRL/acim_freq_ctrl_control.c ****         ACIM_FREQ_CTRL_0.amplitude = ACIM_FREQ_CTRL_0.vf_control_ptr->output_amplitude;
  94              	 .loc 1 85 0
  95 006a 1C4B     	 ldr r3,.L7
  96 006c 9B68     	 ldr r3,[r3,#8]
  97 006e 1B69     	 ldr r3,[r3,#16]
  98 0070 1A4A     	 ldr r2,.L7
  99 0072 9367     	 str r3,[r2,#120]
  86:../Dave/Generated/ACIM_FREQ_CTRL/acim_freq_ctrl_control.c **** 
  87:../Dave/Generated/ACIM_FREQ_CTRL/acim_freq_ctrl_control.c ****         /*Call SVM*/
  88:../Dave/Generated/ACIM_FREQ_CTRL/acim_freq_ctrl_control.c ****         PWM_SVM_SVMUpdate(ACIM_FREQ_CTRL_0.pwm_svm_ptr,(uint16_t)ACIM_FREQ_CTRL_0.amplitude,ACIM_FR
 100              	 .loc 1 88 0
 101 0074 194B     	 ldr r3,.L7
 102 0076 5968     	 ldr r1,[r3,#4]
 103 0078 184B     	 ldr r3,.L7
 104 007a 9B6F     	 ldr r3,[r3,#120]
 105 007c 9AB2     	 uxth r2,r3
 106 007e 174B     	 ldr r3,.L7
 107 0080 DB6F     	 ldr r3,[r3,#124]
 108 0082 0846     	 mov r0,r1
 109 0084 1146     	 mov r1,r2
 110 0086 1A46     	 mov r2,r3
 111 0088 FFF7FEFF 	 bl PWM_SVM_SVMUpdate
 112 008c 07E0     	 b .L4
 113              	.L2:
  89:../Dave/Generated/ACIM_FREQ_CTRL/acim_freq_ctrl_control.c ****       }
  90:../Dave/Generated/ACIM_FREQ_CTRL/acim_freq_ctrl_control.c **** 
  91:../Dave/Generated/ACIM_FREQ_CTRL/acim_freq_ctrl_control.c ****     }
  92:../Dave/Generated/ACIM_FREQ_CTRL/acim_freq_ctrl_control.c ****     else
  93:../Dave/Generated/ACIM_FREQ_CTRL/acim_freq_ctrl_control.c ****     {
  94:../Dave/Generated/ACIM_FREQ_CTRL/acim_freq_ctrl_control.c ****       ACIM_FREQ_CTRL_0.fcl_div_value++;
 114              	 .loc 1 94 0
 115 008e 134B     	 ldr r3,.L7
 116 0090 93F8A630 	 ldrb r3,[r3,#166]
 117 0094 0133     	 adds r3,r3,#1
 118 0096 DAB2     	 uxtb r2,r3
 119 0098 104B     	 ldr r3,.L7
 120 009a 83F8A620 	 strb r2,[r3,#166]
 121              	.L4:
  95:../Dave/Generated/ACIM_FREQ_CTRL/acim_freq_ctrl_control.c ****     }
  96:../Dave/Generated/ACIM_FREQ_CTRL/acim_freq_ctrl_control.c **** 
  97:../Dave/Generated/ACIM_FREQ_CTRL/acim_freq_ctrl_control.c **** /************************* calling control loops ***************************/
  98:../Dave/Generated/ACIM_FREQ_CTRL/acim_freq_ctrl_control.c **** 
  99:../Dave/Generated/ACIM_FREQ_CTRL/acim_freq_ctrl_control.c ****     if(ACIM_FREQ_CTRL_0.pcl_div_value == ACIM_FREQ_CTRL_0.acim_config_ptr->pcl_divider)
 122              	 .loc 1 99 0
 123 009e 0F4B     	 ldr r3,.L7
 124 00a0 93F8A720 	 ldrb r2,[r3,#167]
 125 00a4 0D4B     	 ldr r3,.L7
 126 00a6 1B68     	 ldr r3,[r3]
 127 00a8 5B7D     	 ldrb r3,[r3,#21]
 128 00aa 9A42     	 cmp r2,r3
 129 00ac 0AD1     	 bne .L5
 100:../Dave/Generated/ACIM_FREQ_CTRL/acim_freq_ctrl_control.c ****     {
 101:../Dave/Generated/ACIM_FREQ_CTRL/acim_freq_ctrl_control.c ****       ACIM_FREQ_CTRL_0_SetValueProcessing(&ACIM_FREQ_CTRL_0);
 130              	 .loc 1 101 0
 131 00ae 0B48     	 ldr r0,.L7
 132 00b0 FFF7FEFF 	 bl ACIM_FREQ_CTRL_0_SetValueProcessing
 102:../Dave/Generated/ACIM_FREQ_CTRL/acim_freq_ctrl_control.c **** 
 103:../Dave/Generated/ACIM_FREQ_CTRL/acim_freq_ctrl_control.c **** 	  ACIM_FREQ_CTRL_0_PrimaryControlLoop(&ACIM_FREQ_CTRL_0); 
 133              	 .loc 1 103 0
 134 00b4 0948     	 ldr r0,.L7
 135 00b6 FFF7FEFF 	 bl ACIM_FREQ_CTRL_0_PrimaryControlLoop
 104:../Dave/Generated/ACIM_FREQ_CTRL/acim_freq_ctrl_control.c ****       ACIM_FREQ_CTRL_0.pcl_div_value =(uint8_t)1;
 136              	 .loc 1 104 0
 137 00ba 084B     	 ldr r3,.L7
 138 00bc 0122     	 movs r2,#1
 139 00be 83F8A720 	 strb r2,[r3,#167]
 140 00c2 07E0     	 b .L1
 141              	.L5:
 105:../Dave/Generated/ACIM_FREQ_CTRL/acim_freq_ctrl_control.c ****     }
 106:../Dave/Generated/ACIM_FREQ_CTRL/acim_freq_ctrl_control.c ****     else
 107:../Dave/Generated/ACIM_FREQ_CTRL/acim_freq_ctrl_control.c ****     {
 108:../Dave/Generated/ACIM_FREQ_CTRL/acim_freq_ctrl_control.c ****       ACIM_FREQ_CTRL_0.pcl_div_value++;
 142              	 .loc 1 108 0
 143 00c4 054B     	 ldr r3,.L7
 144 00c6 93F8A730 	 ldrb r3,[r3,#167]
 145 00ca 0133     	 adds r3,r3,#1
 146 00cc DAB2     	 uxtb r2,r3
 147 00ce 034B     	 ldr r3,.L7
 148 00d0 83F8A720 	 strb r2,[r3,#167]
 149              	.L1:
 109:../Dave/Generated/ACIM_FREQ_CTRL/acim_freq_ctrl_control.c ****     }
 110:../Dave/Generated/ACIM_FREQ_CTRL/acim_freq_ctrl_control.c **** 
 111:../Dave/Generated/ACIM_FREQ_CTRL/acim_freq_ctrl_control.c **** }
 150              	 .loc 1 111 0
 151 00d4 0837     	 adds r7,r7,#8
 152              	.LCFI3:
 153              	 .cfi_def_cfa_offset 8
 154 00d6 BD46     	 mov sp,r7
 155              	.LCFI4:
 156              	 .cfi_def_cfa_register 13
 157              	 
 158 00d8 80BD     	 pop {r7,pc}
 159              	.L8:
 160 00da 00BF     	 .align 2
 161              	.L7:
 162 00dc 00000000 	 .word ACIM_FREQ_CTRL_0
 163              	 .cfi_endproc
 164              	.LFE239:
 166              	 .section .text.ACIM_FREQ_CTRL_0_PrimaryControlLoop,"ax",%progbits
 167              	 .align 2
 168              	 .global ACIM_FREQ_CTRL_0_PrimaryControlLoop
 169              	 .thumb
 170              	 .thumb_func
 172              	ACIM_FREQ_CTRL_0_PrimaryControlLoop:
 173              	.LFB240:
 112:../Dave/Generated/ACIM_FREQ_CTRL/acim_freq_ctrl_control.c **** 
 113:../Dave/Generated/ACIM_FREQ_CTRL/acim_freq_ctrl_control.c **** /*************** Primary control loop Functions ****************************/
 114:../Dave/Generated/ACIM_FREQ_CTRL/acim_freq_ctrl_control.c ****  /* This Function execute primary control loop functionality*/
 115:../Dave/Generated/ACIM_FREQ_CTRL/acim_freq_ctrl_control.c **** void ACIM_FREQ_CTRL_0_PrimaryControlLoop(ACIM_FREQ_CTRL_t*const HandlePtr)
 116:../Dave/Generated/ACIM_FREQ_CTRL/acim_freq_ctrl_control.c **** {
 174              	 .loc 1 116 0
 175              	 .cfi_startproc
 176              	 
 177              	 
 178 0000 80B5     	 push {r7,lr}
 179              	.LCFI5:
 180              	 .cfi_def_cfa_offset 8
 181              	 .cfi_offset 7,-8
 182              	 .cfi_offset 14,-4
 183 0002 82B0     	 sub sp,sp,#8
 184              	.LCFI6:
 185              	 .cfi_def_cfa_offset 16
 186 0004 00AF     	 add r7,sp,#0
 187              	.LCFI7:
 188              	 .cfi_def_cfa_register 7
 189 0006 7860     	 str r0,[r7,#4]
 117:../Dave/Generated/ACIM_FREQ_CTRL/acim_freq_ctrl_control.c ****   if(HandlePtr->msm_state != ACIM_FREQ_CTRL_MSM_BOOTSTRAP)
 118:../Dave/Generated/ACIM_FREQ_CTRL/acim_freq_ctrl_control.c ****   {
 119:../Dave/Generated/ACIM_FREQ_CTRL/acim_freq_ctrl_control.c **** 
 120:../Dave/Generated/ACIM_FREQ_CTRL/acim_freq_ctrl_control.c ****   }
 121:../Dave/Generated/ACIM_FREQ_CTRL/acim_freq_ctrl_control.c ****   /* Call motor control state machine */
 122:../Dave/Generated/ACIM_FREQ_CTRL/acim_freq_ctrl_control.c ****   ACIM_FREQ_CTRL_MSM(HandlePtr);
 190              	 .loc 1 122 0
 191 0008 7868     	 ldr r0,[r7,#4]
 192 000a FFF7FEFF 	 bl ACIM_FREQ_CTRL_MSM
 123:../Dave/Generated/ACIM_FREQ_CTRL/acim_freq_ctrl_control.c **** }
 193              	 .loc 1 123 0
 194 000e 0837     	 adds r7,r7,#8
 195              	.LCFI8:
 196              	 .cfi_def_cfa_offset 8
 197 0010 BD46     	 mov sp,r7
 198              	.LCFI9:
 199              	 .cfi_def_cfa_register 13
 200              	 
 201 0012 80BD     	 pop {r7,pc}
 202              	 .cfi_endproc
 203              	.LFE240:
 205              	 .section .text.ACIM_FREQ_CTRL_0_SetValueProcessing,"ax",%progbits
 206              	 .align 2
 207              	 .global ACIM_FREQ_CTRL_0_SetValueProcessing
 208              	 .thumb
 209              	 .thumb_func
 211              	ACIM_FREQ_CTRL_0_SetValueProcessing:
 212              	.LFB241:
 124:../Dave/Generated/ACIM_FREQ_CTRL/acim_freq_ctrl_control.c **** 
 125:../Dave/Generated/ACIM_FREQ_CTRL/acim_freq_ctrl_control.c **** /*************** Set Value Processing Function ****************************/
 126:../Dave/Generated/ACIM_FREQ_CTRL/acim_freq_ctrl_control.c **** /* This Function execute set value processing control loop functionality*/
 127:../Dave/Generated/ACIM_FREQ_CTRL/acim_freq_ctrl_control.c **** void ACIM_FREQ_CTRL_0_SetValueProcessing(ACIM_FREQ_CTRL_t*const HandlePtr)
 128:../Dave/Generated/ACIM_FREQ_CTRL/acim_freq_ctrl_control.c **** {
 213              	 .loc 1 128 0
 214              	 .cfi_startproc
 215              	 
 216              	 
 217              	 
 218 0000 80B4     	 push {r7}
 219              	.LCFI10:
 220              	 .cfi_def_cfa_offset 4
 221              	 .cfi_offset 7,-4
 222 0002 83B0     	 sub sp,sp,#12
 223              	.LCFI11:
 224              	 .cfi_def_cfa_offset 16
 225 0004 00AF     	 add r7,sp,#0
 226              	.LCFI12:
 227              	 .cfi_def_cfa_register 7
 228 0006 7860     	 str r0,[r7,#4]
 129:../Dave/Generated/ACIM_FREQ_CTRL/acim_freq_ctrl_control.c **** 
 130:../Dave/Generated/ACIM_FREQ_CTRL/acim_freq_ctrl_control.c **** }
 229              	 .loc 1 130 0
 230 0008 0C37     	 adds r7,r7,#12
 231              	.LCFI13:
 232              	 .cfi_def_cfa_offset 4
 233 000a BD46     	 mov sp,r7
 234              	.LCFI14:
 235              	 .cfi_def_cfa_register 13
 236              	 
 237 000c 5DF8047B 	 ldr r7,[sp],#4
 238              	.LCFI15:
 239              	 .cfi_restore 7
 240              	 .cfi_def_cfa_offset 0
 241 0010 7047     	 bx lr
 242              	 .cfi_endproc
 243              	.LFE241:
 245 0012 00BF     	 .section .text.CCU81_0_IRQHandler,"ax",%progbits
 246              	 .align 2
 247              	 .global CCU81_0_IRQHandler
 248              	 .thumb
 249              	 .thumb_func
 251              	CCU81_0_IRQHandler:
 252              	.LFB242:
 131:../Dave/Generated/ACIM_FREQ_CTRL/acim_freq_ctrl_control.c **** 
 132:../Dave/Generated/ACIM_FREQ_CTRL/acim_freq_ctrl_control.c **** void ACIM_FREQ_CTRL_1_PrimaryControlLoop(ACIM_FREQ_CTRL_t*const HandlePtr);  
 133:../Dave/Generated/ACIM_FREQ_CTRL/acim_freq_ctrl_control.c **** void ACIM_FREQ_CTRL_1_SetValueProcessing(ACIM_FREQ_CTRL_t*const HandlePtr);
 134:../Dave/Generated/ACIM_FREQ_CTRL/acim_freq_ctrl_control.c **** 
 135:../Dave/Generated/ACIM_FREQ_CTRL/acim_freq_ctrl_control.c **** void ACIM_FREQ_CTRL_1_FastControlLoop_ISR()
 136:../Dave/Generated/ACIM_FREQ_CTRL/acim_freq_ctrl_control.c **** {  
 253              	 .loc 1 136 0
 254              	 .cfi_startproc
 255              	 
 256              	 
 257 0000 80B5     	 push {r7,lr}
 258              	.LCFI16:
 259              	 .cfi_def_cfa_offset 8
 260              	 .cfi_offset 7,-8
 261              	 .cfi_offset 14,-4
 262 0002 82B0     	 sub sp,sp,#8
 263              	.LCFI17:
 264              	 .cfi_def_cfa_offset 16
 265 0004 00AF     	 add r7,sp,#0
 266              	.LCFI18:
 267              	 .cfi_def_cfa_register 7
 137:../Dave/Generated/ACIM_FREQ_CTRL/acim_freq_ctrl_control.c ****   int32_t temp_angle;
 138:../Dave/Generated/ACIM_FREQ_CTRL/acim_freq_ctrl_control.c **** /************************* Fast Control Loop ***************************/
 139:../Dave/Generated/ACIM_FREQ_CTRL/acim_freq_ctrl_control.c **** 
 140:../Dave/Generated/ACIM_FREQ_CTRL/acim_freq_ctrl_control.c ****     if(ACIM_FREQ_CTRL_1.fcl_div_value == ACIM_FREQ_CTRL_1.acim_config_ptr->fcl_divider)
 268              	 .loc 1 140 0
 269 0006 354B     	 ldr r3,.L17
 270 0008 93F8A620 	 ldrb r2,[r3,#166]
 271 000c 334B     	 ldr r3,.L17
 272 000e 1B68     	 ldr r3,[r3]
 273 0010 1B7D     	 ldrb r3,[r3,#20]
 274 0012 9A42     	 cmp r2,r3
 275 0014 3BD1     	 bne .L12
 141:../Dave/Generated/ACIM_FREQ_CTRL/acim_freq_ctrl_control.c ****     {
 142:../Dave/Generated/ACIM_FREQ_CTRL/acim_freq_ctrl_control.c ****       ACIM_FREQ_CTRL_1.fcl_div_value = 1;
 276              	 .loc 1 142 0
 277 0016 314B     	 ldr r3,.L17
 278 0018 0122     	 movs r2,#1
 279 001a 83F8A620 	 strb r2,[r3,#166]
 143:../Dave/Generated/ACIM_FREQ_CTRL/acim_freq_ctrl_control.c **** 
 144:../Dave/Generated/ACIM_FREQ_CTRL/acim_freq_ctrl_control.c ****       if(ACIM_FREQ_CTRL_1.msm_state != ACIM_FREQ_CTRL_MSM_BOOTSTRAP)
 280              	 .loc 1 144 0
 281 001e 2F4B     	 ldr r3,.L17
 282 0020 93F84D30 	 ldrb r3,[r3,#77]
 283 0024 092B     	 cmp r3,#9
 284 0026 3AD0     	 beq .L14
 145:../Dave/Generated/ACIM_FREQ_CTRL/acim_freq_ctrl_control.c ****       {
 146:../Dave/Generated/ACIM_FREQ_CTRL/acim_freq_ctrl_control.c **** 
 147:../Dave/Generated/ACIM_FREQ_CTRL/acim_freq_ctrl_control.c ****         /*Current is 0 because current measurement is disabled.*/
 148:../Dave/Generated/ACIM_FREQ_CTRL/acim_freq_ctrl_control.c ****         ACIM_FREQ_CTRL_1.motor_current = 0U;
 285              	 .loc 1 148 0
 286 0028 2C4B     	 ldr r3,.L17
 287 002a 0022     	 movs r2,#0
 288 002c C3F89820 	 str r2,[r3,#152]
 149:../Dave/Generated/ACIM_FREQ_CTRL/acim_freq_ctrl_control.c **** 
 150:../Dave/Generated/ACIM_FREQ_CTRL/acim_freq_ctrl_control.c ****         /*Updating input of v/f control*/
 151:../Dave/Generated/ACIM_FREQ_CTRL/acim_freq_ctrl_control.c ****         ACIM_FREQ_CTRL_1.vf_control_ptr->input = (int32_t)*ACIM_FREQ_CTRL_1.speed_set_ptr;
 289              	 .loc 1 151 0
 290 0030 2A4B     	 ldr r3,.L17
 291 0032 9B68     	 ldr r3,[r3,#8]
 292 0034 294A     	 ldr r2,.L17
 293 0036 126F     	 ldr r2,[r2,#112]
 294 0038 1268     	 ldr r2,[r2]
 295 003a 9A60     	 str r2,[r3,#8]
 152:../Dave/Generated/ACIM_FREQ_CTRL/acim_freq_ctrl_control.c **** 
 153:../Dave/Generated/ACIM_FREQ_CTRL/acim_freq_ctrl_control.c ****         /*amplitude calculation*/
 154:../Dave/Generated/ACIM_FREQ_CTRL/acim_freq_ctrl_control.c ****         ACIM_FREQ_CTRL_Amplitude_Calculation(&ACIM_FREQ_CTRL_1);
 296              	 .loc 1 154 0
 297 003c 2748     	 ldr r0,.L17
 298 003e FFF7FEFF 	 bl ACIM_FREQ_CTRL_Amplitude_Calculation
 155:../Dave/Generated/ACIM_FREQ_CTRL/acim_freq_ctrl_control.c **** 
 156:../Dave/Generated/ACIM_FREQ_CTRL/acim_freq_ctrl_control.c ****         /*angle calculation*/
 157:../Dave/Generated/ACIM_FREQ_CTRL/acim_freq_ctrl_control.c ****         ACIM_FREQ_CTRL_AngleRamp(&ACIM_FREQ_CTRL_1);
 299              	 .loc 1 157 0
 300 0042 2648     	 ldr r0,.L17
 301 0044 FFF7FEFF 	 bl ACIM_FREQ_CTRL_AngleRamp
 158:../Dave/Generated/ACIM_FREQ_CTRL/acim_freq_ctrl_control.c **** 
 159:../Dave/Generated/ACIM_FREQ_CTRL/acim_freq_ctrl_control.c **** 
 160:../Dave/Generated/ACIM_FREQ_CTRL/acim_freq_ctrl_control.c ****         /*Update Modulation Angle and Amplitude before calling svm*/
 161:../Dave/Generated/ACIM_FREQ_CTRL/acim_freq_ctrl_control.c ****         temp_angle = ACIM_FREQ_CTRL_1.vf_control_ptr->output_angle + (ACIM_FREQ_CTRL_1.angle_offset
 302              	 .loc 1 161 0
 303 0048 244B     	 ldr r3,.L17
 304 004a 9B68     	 ldr r3,[r3,#8]
 305 004c DB68     	 ldr r3,[r3,#12]
 306 004e 1946     	 mov r1,r3
 307 0050 224B     	 ldr r3,.L17
 308 0052 9B6D     	 ldr r3,[r3,#88]
 309 0054 214A     	 ldr r2,.L17
 310 0056 92F8A420 	 ldrb r2,[r2,#164]
 311 005a 52B2     	 sxtb r2,r2
 312 005c 02FB03F3 	 mul r3,r2,r3
 313 0060 0B44     	 add r3,r3,r1
 314 0062 7B60     	 str r3,[r7,#4]
 162:../Dave/Generated/ACIM_FREQ_CTRL/acim_freq_ctrl_control.c ****         ACIM_FREQ_CTRL_1.angle     = (uint32_t)(temp_angle);
 315              	 .loc 1 162 0
 316 0064 7B68     	 ldr r3,[r7,#4]
 317 0066 1D4A     	 ldr r2,.L17
 318 0068 D367     	 str r3,[r2,#124]
 163:../Dave/Generated/ACIM_FREQ_CTRL/acim_freq_ctrl_control.c ****         ACIM_FREQ_CTRL_1.amplitude = ACIM_FREQ_CTRL_1.vf_control_ptr->output_amplitude;
 319              	 .loc 1 163 0
 320 006a 1C4B     	 ldr r3,.L17
 321 006c 9B68     	 ldr r3,[r3,#8]
 322 006e 1B69     	 ldr r3,[r3,#16]
 323 0070 1A4A     	 ldr r2,.L17
 324 0072 9367     	 str r3,[r2,#120]
 164:../Dave/Generated/ACIM_FREQ_CTRL/acim_freq_ctrl_control.c **** 
 165:../Dave/Generated/ACIM_FREQ_CTRL/acim_freq_ctrl_control.c ****         /*Call SVM*/
 166:../Dave/Generated/ACIM_FREQ_CTRL/acim_freq_ctrl_control.c ****         PWM_SVM_SVMUpdate(ACIM_FREQ_CTRL_1.pwm_svm_ptr,(uint16_t)ACIM_FREQ_CTRL_1.amplitude,ACIM_FR
 325              	 .loc 1 166 0
 326 0074 194B     	 ldr r3,.L17
 327 0076 5968     	 ldr r1,[r3,#4]
 328 0078 184B     	 ldr r3,.L17
 329 007a 9B6F     	 ldr r3,[r3,#120]
 330 007c 9AB2     	 uxth r2,r3
 331 007e 174B     	 ldr r3,.L17
 332 0080 DB6F     	 ldr r3,[r3,#124]
 333 0082 0846     	 mov r0,r1
 334 0084 1146     	 mov r1,r2
 335 0086 1A46     	 mov r2,r3
 336 0088 FFF7FEFF 	 bl PWM_SVM_SVMUpdate
 337 008c 07E0     	 b .L14
 338              	.L12:
 167:../Dave/Generated/ACIM_FREQ_CTRL/acim_freq_ctrl_control.c ****       }
 168:../Dave/Generated/ACIM_FREQ_CTRL/acim_freq_ctrl_control.c **** 
 169:../Dave/Generated/ACIM_FREQ_CTRL/acim_freq_ctrl_control.c ****     }
 170:../Dave/Generated/ACIM_FREQ_CTRL/acim_freq_ctrl_control.c ****     else
 171:../Dave/Generated/ACIM_FREQ_CTRL/acim_freq_ctrl_control.c ****     {
 172:../Dave/Generated/ACIM_FREQ_CTRL/acim_freq_ctrl_control.c ****       ACIM_FREQ_CTRL_1.fcl_div_value++;
 339              	 .loc 1 172 0
 340 008e 134B     	 ldr r3,.L17
 341 0090 93F8A630 	 ldrb r3,[r3,#166]
 342 0094 0133     	 adds r3,r3,#1
 343 0096 DAB2     	 uxtb r2,r3
 344 0098 104B     	 ldr r3,.L17
 345 009a 83F8A620 	 strb r2,[r3,#166]
 346              	.L14:
 173:../Dave/Generated/ACIM_FREQ_CTRL/acim_freq_ctrl_control.c ****     }
 174:../Dave/Generated/ACIM_FREQ_CTRL/acim_freq_ctrl_control.c **** 
 175:../Dave/Generated/ACIM_FREQ_CTRL/acim_freq_ctrl_control.c **** /************************* calling control loops ***************************/
 176:../Dave/Generated/ACIM_FREQ_CTRL/acim_freq_ctrl_control.c **** 
 177:../Dave/Generated/ACIM_FREQ_CTRL/acim_freq_ctrl_control.c ****     if(ACIM_FREQ_CTRL_1.pcl_div_value == ACIM_FREQ_CTRL_1.acim_config_ptr->pcl_divider)
 347              	 .loc 1 177 0
 348 009e 0F4B     	 ldr r3,.L17
 349 00a0 93F8A720 	 ldrb r2,[r3,#167]
 350 00a4 0D4B     	 ldr r3,.L17
 351 00a6 1B68     	 ldr r3,[r3]
 352 00a8 5B7D     	 ldrb r3,[r3,#21]
 353 00aa 9A42     	 cmp r2,r3
 354 00ac 0AD1     	 bne .L15
 178:../Dave/Generated/ACIM_FREQ_CTRL/acim_freq_ctrl_control.c ****     {
 179:../Dave/Generated/ACIM_FREQ_CTRL/acim_freq_ctrl_control.c ****       ACIM_FREQ_CTRL_1_SetValueProcessing(&ACIM_FREQ_CTRL_1);
 355              	 .loc 1 179 0
 356 00ae 0B48     	 ldr r0,.L17
 357 00b0 FFF7FEFF 	 bl ACIM_FREQ_CTRL_1_SetValueProcessing
 180:../Dave/Generated/ACIM_FREQ_CTRL/acim_freq_ctrl_control.c **** 
 181:../Dave/Generated/ACIM_FREQ_CTRL/acim_freq_ctrl_control.c **** 	  ACIM_FREQ_CTRL_1_PrimaryControlLoop(&ACIM_FREQ_CTRL_1); 
 358              	 .loc 1 181 0
 359 00b4 0948     	 ldr r0,.L17
 360 00b6 FFF7FEFF 	 bl ACIM_FREQ_CTRL_1_PrimaryControlLoop
 182:../Dave/Generated/ACIM_FREQ_CTRL/acim_freq_ctrl_control.c ****       ACIM_FREQ_CTRL_1.pcl_div_value =(uint8_t)1;
 361              	 .loc 1 182 0
 362 00ba 084B     	 ldr r3,.L17
 363 00bc 0122     	 movs r2,#1
 364 00be 83F8A720 	 strb r2,[r3,#167]
 365 00c2 07E0     	 b .L11
 366              	.L15:
 183:../Dave/Generated/ACIM_FREQ_CTRL/acim_freq_ctrl_control.c ****     }
 184:../Dave/Generated/ACIM_FREQ_CTRL/acim_freq_ctrl_control.c ****     else
 185:../Dave/Generated/ACIM_FREQ_CTRL/acim_freq_ctrl_control.c ****     {
 186:../Dave/Generated/ACIM_FREQ_CTRL/acim_freq_ctrl_control.c ****       ACIM_FREQ_CTRL_1.pcl_div_value++;
 367              	 .loc 1 186 0
 368 00c4 054B     	 ldr r3,.L17
 369 00c6 93F8A730 	 ldrb r3,[r3,#167]
 370 00ca 0133     	 adds r3,r3,#1
 371 00cc DAB2     	 uxtb r2,r3
 372 00ce 034B     	 ldr r3,.L17
 373 00d0 83F8A720 	 strb r2,[r3,#167]
 374              	.L11:
 187:../Dave/Generated/ACIM_FREQ_CTRL/acim_freq_ctrl_control.c ****     }
 188:../Dave/Generated/ACIM_FREQ_CTRL/acim_freq_ctrl_control.c **** 
 189:../Dave/Generated/ACIM_FREQ_CTRL/acim_freq_ctrl_control.c **** }
 375              	 .loc 1 189 0
 376 00d4 0837     	 adds r7,r7,#8
 377              	.LCFI19:
 378              	 .cfi_def_cfa_offset 8
 379 00d6 BD46     	 mov sp,r7
 380              	.LCFI20:
 381              	 .cfi_def_cfa_register 13
 382              	 
 383 00d8 80BD     	 pop {r7,pc}
 384              	.L18:
 385 00da 00BF     	 .align 2
 386              	.L17:
 387 00dc 00000000 	 .word ACIM_FREQ_CTRL_1
 388              	 .cfi_endproc
 389              	.LFE242:
 391              	 .section .text.ACIM_FREQ_CTRL_1_PrimaryControlLoop,"ax",%progbits
 392              	 .align 2
 393              	 .global ACIM_FREQ_CTRL_1_PrimaryControlLoop
 394              	 .thumb
 395              	 .thumb_func
 397              	ACIM_FREQ_CTRL_1_PrimaryControlLoop:
 398              	.LFB243:
 190:../Dave/Generated/ACIM_FREQ_CTRL/acim_freq_ctrl_control.c **** 
 191:../Dave/Generated/ACIM_FREQ_CTRL/acim_freq_ctrl_control.c **** /*************** Primary control loop Functions ****************************/
 192:../Dave/Generated/ACIM_FREQ_CTRL/acim_freq_ctrl_control.c ****  /* This Function execute primary control loop functionality*/
 193:../Dave/Generated/ACIM_FREQ_CTRL/acim_freq_ctrl_control.c **** void ACIM_FREQ_CTRL_1_PrimaryControlLoop(ACIM_FREQ_CTRL_t*const HandlePtr)
 194:../Dave/Generated/ACIM_FREQ_CTRL/acim_freq_ctrl_control.c **** {
 399              	 .loc 1 194 0
 400              	 .cfi_startproc
 401              	 
 402              	 
 403 0000 80B5     	 push {r7,lr}
 404              	.LCFI21:
 405              	 .cfi_def_cfa_offset 8
 406              	 .cfi_offset 7,-8
 407              	 .cfi_offset 14,-4
 408 0002 82B0     	 sub sp,sp,#8
 409              	.LCFI22:
 410              	 .cfi_def_cfa_offset 16
 411 0004 00AF     	 add r7,sp,#0
 412              	.LCFI23:
 413              	 .cfi_def_cfa_register 7
 414 0006 7860     	 str r0,[r7,#4]
 195:../Dave/Generated/ACIM_FREQ_CTRL/acim_freq_ctrl_control.c ****   if(HandlePtr->msm_state != ACIM_FREQ_CTRL_MSM_BOOTSTRAP)
 196:../Dave/Generated/ACIM_FREQ_CTRL/acim_freq_ctrl_control.c ****   {
 197:../Dave/Generated/ACIM_FREQ_CTRL/acim_freq_ctrl_control.c **** 
 198:../Dave/Generated/ACIM_FREQ_CTRL/acim_freq_ctrl_control.c ****   }
 199:../Dave/Generated/ACIM_FREQ_CTRL/acim_freq_ctrl_control.c ****   /* Call motor control state machine */
 200:../Dave/Generated/ACIM_FREQ_CTRL/acim_freq_ctrl_control.c ****   ACIM_FREQ_CTRL_MSM(HandlePtr);
 415              	 .loc 1 200 0
 416 0008 7868     	 ldr r0,[r7,#4]
 417 000a FFF7FEFF 	 bl ACIM_FREQ_CTRL_MSM
 201:../Dave/Generated/ACIM_FREQ_CTRL/acim_freq_ctrl_control.c **** }
 418              	 .loc 1 201 0
 419 000e 0837     	 adds r7,r7,#8
 420              	.LCFI24:
 421              	 .cfi_def_cfa_offset 8
 422 0010 BD46     	 mov sp,r7
 423              	.LCFI25:
 424              	 .cfi_def_cfa_register 13
 425              	 
 426 0012 80BD     	 pop {r7,pc}
 427              	 .cfi_endproc
 428              	.LFE243:
 430              	 .section .text.ACIM_FREQ_CTRL_1_SetValueProcessing,"ax",%progbits
 431              	 .align 2
 432              	 .global ACIM_FREQ_CTRL_1_SetValueProcessing
 433              	 .thumb
 434              	 .thumb_func
 436              	ACIM_FREQ_CTRL_1_SetValueProcessing:
 437              	.LFB244:
 202:../Dave/Generated/ACIM_FREQ_CTRL/acim_freq_ctrl_control.c **** 
 203:../Dave/Generated/ACIM_FREQ_CTRL/acim_freq_ctrl_control.c **** /*************** Set Value Processing Function ****************************/
 204:../Dave/Generated/ACIM_FREQ_CTRL/acim_freq_ctrl_control.c **** /* This Function execute set value processing control loop functionality*/
 205:../Dave/Generated/ACIM_FREQ_CTRL/acim_freq_ctrl_control.c **** void ACIM_FREQ_CTRL_1_SetValueProcessing(ACIM_FREQ_CTRL_t*const HandlePtr)
 206:../Dave/Generated/ACIM_FREQ_CTRL/acim_freq_ctrl_control.c **** {
 438              	 .loc 1 206 0
 439              	 .cfi_startproc
 440              	 
 441              	 
 442              	 
 443 0000 80B4     	 push {r7}
 444              	.LCFI26:
 445              	 .cfi_def_cfa_offset 4
 446              	 .cfi_offset 7,-4
 447 0002 83B0     	 sub sp,sp,#12
 448              	.LCFI27:
 449              	 .cfi_def_cfa_offset 16
 450 0004 00AF     	 add r7,sp,#0
 451              	.LCFI28:
 452              	 .cfi_def_cfa_register 7
 453 0006 7860     	 str r0,[r7,#4]
 207:../Dave/Generated/ACIM_FREQ_CTRL/acim_freq_ctrl_control.c **** 
 208:../Dave/Generated/ACIM_FREQ_CTRL/acim_freq_ctrl_control.c **** }
 454              	 .loc 1 208 0
 455 0008 0C37     	 adds r7,r7,#12
 456              	.LCFI29:
 457              	 .cfi_def_cfa_offset 4
 458 000a BD46     	 mov sp,r7
 459              	.LCFI30:
 460              	 .cfi_def_cfa_register 13
 461              	 
 462 000c 5DF8047B 	 ldr r7,[sp],#4
 463              	.LCFI31:
 464              	 .cfi_restore 7
 465              	 .cfi_def_cfa_offset 0
 466 0010 7047     	 bx lr
 467              	 .cfi_endproc
 468              	.LFE244:
 470 0012 00BF     	 .text
 471              	.Letext0:
 472              	 .file 2 "c:\\users\\pescatore\\switchdrive\\private\\konzept\\mcu for gate driver\\dave_4-4-2_64bit_2018-02-23\\dave-ide-4.4.2-64bit\\eclipse\\arm-gcc-49\\arm-none-eabi\\include\\machine\\_default_types.h"
 473              	 .file 3 "c:\\users\\pescatore\\switchdrive\\private\\konzept\\mcu for gate driver\\dave_4-4-2_64bit_2018-02-23\\dave-ide-4.4.2-64bit\\eclipse\\arm-gcc-49\\arm-none-eabi\\include\\stdint.h"
 474              	 .file 4 "F:/GitHub Projects/FH Luzern/BAT/BAT/Libraries/CMSIS/Infineon/XMC4400_series/Include/XMC4400.h"
 475              	 .file 5 "../Dave/Generated/ACIM_FREQ_CTRL/../MOTOR_LIB/motor_lib.h"
 476              	 .file 6 "F:/GitHub Projects/FH Luzern/BAT/BAT/Libraries/XMCLib/inc/xmc_ccu8.h"
 477              	 .file 7 "F:/GitHub Projects/FH Luzern/BAT/BAT/Libraries/XMCLib/inc/xmc4_scu.h"
 478              	 .file 8 "../Dave/Generated/ACIM_FREQ_CTRL/../PWM_SVM/../GLOBAL_CCU8/global_ccu8.h"
 479              	 .file 9 "F:/GitHub Projects/FH Luzern/BAT/BAT/Libraries/XMCLib/inc/xmc_gpio.h"
 480              	 .file 10 "F:/GitHub Projects/FH Luzern/BAT/BAT/Libraries/XMCLib/inc/xmc4_gpio.h"
 481              	 .file 11 "../Dave/Generated/ACIM_FREQ_CTRL/../PWM_SVM/pwm_svm.h"
 482              	 .file 12 "../Dave/Generated/ACIM_FREQ_CTRL/../AUTOMATION/../SYSTIMER/systimer.h"
 483              	 .file 13 "../Dave/Generated/ACIM_FREQ_CTRL/../AUTOMATION/automation.h"
 484              	 .file 14 "../Dave/Generated/ACIM_FREQ_CTRL/acim_freq_ctrl.h"
 485              	 .file 15 "F:/GitHub Projects/FH Luzern/BAT/BAT/Libraries/CMSIS/Include/core_cm4.h"
 486              	 .file 16 "F:/GitHub Projects/FH Luzern/BAT/BAT/Libraries/CMSIS/Infineon/XMC4400_series/Include/system_XMC4400.h"
 487              	 .file 17 "../Dave/Generated/ACIM_FREQ_CTRL/acim_freq_ctrl_extern.h"