   1              	 .syntax unified
   2              	 .cpu cortex-m4
   3              	 .eabi_attribute 27,3
   4              	 .fpu fpv4-sp-d16
   5              	 .eabi_attribute 20,1
   6              	 .eabi_attribute 21,1
   7              	 .eabi_attribute 23,3
   8              	 .eabi_attribute 24,1
   9              	 .eabi_attribute 25,1
  10              	 .eabi_attribute 26,1
  11              	 .eabi_attribute 30,6
  12              	 .eabi_attribute 34,1
  13              	 .eabi_attribute 18,4
  14              	 .thumb
  15              	 .file "main.c"
  16              	 .text
  17              	.Ltext0:
  18              	 .cfi_sections .debug_frame
  19              	 .section .text.XMC_GPIO_SetOutputHigh,"ax",%progbits
  20              	 .align 2
  21              	 .thumb
  22              	 .thumb_func
  24              	XMC_GPIO_SetOutputHigh:
  25              	.LFB170:
  26              	 .file 1 "F:/GitHub Projects/FH Luzern/BAT/BAT/Libraries/XMCLib/inc/xmc_gpio.h"
   1:F:/GitHub Projects/FH Luzern/BAT/BAT/Libraries/XMCLib/inc\xmc_gpio.h **** /**
   2:F:/GitHub Projects/FH Luzern/BAT/BAT/Libraries/XMCLib/inc\xmc_gpio.h ****  * @file xmc_gpio.h
   3:F:/GitHub Projects/FH Luzern/BAT/BAT/Libraries/XMCLib/inc\xmc_gpio.h ****  * @date 2015-06-20
   4:F:/GitHub Projects/FH Luzern/BAT/BAT/Libraries/XMCLib/inc\xmc_gpio.h ****  *
   5:F:/GitHub Projects/FH Luzern/BAT/BAT/Libraries/XMCLib/inc\xmc_gpio.h ****  * @cond
   6:F:/GitHub Projects/FH Luzern/BAT/BAT/Libraries/XMCLib/inc\xmc_gpio.h ****  **************************************************************************************************
   7:F:/GitHub Projects/FH Luzern/BAT/BAT/Libraries/XMCLib/inc\xmc_gpio.h ****  * XMClib v2.1.18 - XMC Peripheral Driver Library 
   8:F:/GitHub Projects/FH Luzern/BAT/BAT/Libraries/XMCLib/inc\xmc_gpio.h ****  *
   9:F:/GitHub Projects/FH Luzern/BAT/BAT/Libraries/XMCLib/inc\xmc_gpio.h ****  * Copyright (c) 2015-2018, Infineon Technologies AG
  10:F:/GitHub Projects/FH Luzern/BAT/BAT/Libraries/XMCLib/inc\xmc_gpio.h ****  * All rights reserved.                        
  11:F:/GitHub Projects/FH Luzern/BAT/BAT/Libraries/XMCLib/inc\xmc_gpio.h ****  *                                             
  12:F:/GitHub Projects/FH Luzern/BAT/BAT/Libraries/XMCLib/inc\xmc_gpio.h ****  * Redistribution and use in source and binary forms, with or without modification,are permitted pr
  13:F:/GitHub Projects/FH Luzern/BAT/BAT/Libraries/XMCLib/inc\xmc_gpio.h ****  * following conditions are met:   
  14:F:/GitHub Projects/FH Luzern/BAT/BAT/Libraries/XMCLib/inc\xmc_gpio.h ****  *                                                                              
  15:F:/GitHub Projects/FH Luzern/BAT/BAT/Libraries/XMCLib/inc\xmc_gpio.h ****  * Redistributions of source code must retain the above copyright notice, this list of conditions a
  16:F:/GitHub Projects/FH Luzern/BAT/BAT/Libraries/XMCLib/inc\xmc_gpio.h ****  * disclaimer.                        
  17:F:/GitHub Projects/FH Luzern/BAT/BAT/Libraries/XMCLib/inc\xmc_gpio.h ****  * 
  18:F:/GitHub Projects/FH Luzern/BAT/BAT/Libraries/XMCLib/inc\xmc_gpio.h ****  * Redistributions in binary form must reproduce the above copyright notice, this list of condition
  19:F:/GitHub Projects/FH Luzern/BAT/BAT/Libraries/XMCLib/inc\xmc_gpio.h ****  * disclaimer in the documentation and/or other materials provided with the distribution.          
  20:F:/GitHub Projects/FH Luzern/BAT/BAT/Libraries/XMCLib/inc\xmc_gpio.h ****  * 
  21:F:/GitHub Projects/FH Luzern/BAT/BAT/Libraries/XMCLib/inc\xmc_gpio.h ****  * Neither the name of the copyright holders nor the names of its contributors may be used to endor
  22:F:/GitHub Projects/FH Luzern/BAT/BAT/Libraries/XMCLib/inc\xmc_gpio.h ****  * products derived from this software without specific prior written permission.                  
  23:F:/GitHub Projects/FH Luzern/BAT/BAT/Libraries/XMCLib/inc\xmc_gpio.h ****  *                                                                              
  24:F:/GitHub Projects/FH Luzern/BAT/BAT/Libraries/XMCLib/inc\xmc_gpio.h ****  * THIS SOFTWARE IS PROVIDED BY THE COPYRIGHT HOLDERS AND CONTRIBUTORS "AS IS" AND ANY EXPRESS OR I
  25:F:/GitHub Projects/FH Luzern/BAT/BAT/Libraries/XMCLib/inc\xmc_gpio.h ****  * INCLUDING, BUT NOT LIMITED TO, THE IMPLIED WARRANTIES OF MERCHANTABILITY AND FITNESS FOR A PARTI
  26:F:/GitHub Projects/FH Luzern/BAT/BAT/Libraries/XMCLib/inc\xmc_gpio.h ****  * DISCLAIMED. IN NO EVENT SHALL THE COPYRIGHT HOLDER OR CONTRIBUTORS BE LIABLE  FOR ANY DIRECT, IN
  27:F:/GitHub Projects/FH Luzern/BAT/BAT/Libraries/XMCLib/inc\xmc_gpio.h ****  * SPECIAL, EXEMPLARY, OR CONSEQUENTIAL DAMAGES (INCLUDING, BUT NOT LIMITED TO, PROCUREMENT OF SUBS
  28:F:/GitHub Projects/FH Luzern/BAT/BAT/Libraries/XMCLib/inc\xmc_gpio.h ****  * SERVICES; LOSS OF USE, DATA, OR PROFITS; OR BUSINESS INTERRUPTION) HOWEVER CAUSED AND ON ANY THE
  29:F:/GitHub Projects/FH Luzern/BAT/BAT/Libraries/XMCLib/inc\xmc_gpio.h ****  * WHETHER IN CONTRACT, STRICT LIABILITY,OR TORT (INCLUDING NEGLIGENCE OR OTHERWISE) ARISING IN ANY
  30:F:/GitHub Projects/FH Luzern/BAT/BAT/Libraries/XMCLib/inc\xmc_gpio.h ****  * OF THIS SOFTWARE, EVEN IF ADVISED OF THE POSSIBILITY OF SUCH DAMAGE.                            
  31:F:/GitHub Projects/FH Luzern/BAT/BAT/Libraries/XMCLib/inc\xmc_gpio.h ****  *                                                                              
  32:F:/GitHub Projects/FH Luzern/BAT/BAT/Libraries/XMCLib/inc\xmc_gpio.h ****  * To improve the quality of the software, users are encouraged to share modifications, enhancement
  33:F:/GitHub Projects/FH Luzern/BAT/BAT/Libraries/XMCLib/inc\xmc_gpio.h ****  * Infineon Technologies AG dave@infineon.com).                                                    
  34:F:/GitHub Projects/FH Luzern/BAT/BAT/Libraries/XMCLib/inc\xmc_gpio.h ****  **************************************************************************************************
  35:F:/GitHub Projects/FH Luzern/BAT/BAT/Libraries/XMCLib/inc\xmc_gpio.h ****  *
  36:F:/GitHub Projects/FH Luzern/BAT/BAT/Libraries/XMCLib/inc\xmc_gpio.h ****  * Change History
  37:F:/GitHub Projects/FH Luzern/BAT/BAT/Libraries/XMCLib/inc\xmc_gpio.h ****  * --------------
  38:F:/GitHub Projects/FH Luzern/BAT/BAT/Libraries/XMCLib/inc\xmc_gpio.h ****  *
  39:F:/GitHub Projects/FH Luzern/BAT/BAT/Libraries/XMCLib/inc\xmc_gpio.h ****  * 2015-02-20:
  40:F:/GitHub Projects/FH Luzern/BAT/BAT/Libraries/XMCLib/inc\xmc_gpio.h ****  *     - Initial draft<br>
  41:F:/GitHub Projects/FH Luzern/BAT/BAT/Libraries/XMCLib/inc\xmc_gpio.h ****  *     - Documentation improved <br>
  42:F:/GitHub Projects/FH Luzern/BAT/BAT/Libraries/XMCLib/inc\xmc_gpio.h ****  *      
  43:F:/GitHub Projects/FH Luzern/BAT/BAT/Libraries/XMCLib/inc\xmc_gpio.h ****  * 2015-06-20:
  44:F:/GitHub Projects/FH Luzern/BAT/BAT/Libraries/XMCLib/inc\xmc_gpio.h ****  *     - Removed version macros and declaration of GetDriverVersion API
  45:F:/GitHub Projects/FH Luzern/BAT/BAT/Libraries/XMCLib/inc\xmc_gpio.h ****  *
  46:F:/GitHub Projects/FH Luzern/BAT/BAT/Libraries/XMCLib/inc\xmc_gpio.h ****  * @endcond
  47:F:/GitHub Projects/FH Luzern/BAT/BAT/Libraries/XMCLib/inc\xmc_gpio.h ****  *
  48:F:/GitHub Projects/FH Luzern/BAT/BAT/Libraries/XMCLib/inc\xmc_gpio.h ****  */
  49:F:/GitHub Projects/FH Luzern/BAT/BAT/Libraries/XMCLib/inc\xmc_gpio.h **** 
  50:F:/GitHub Projects/FH Luzern/BAT/BAT/Libraries/XMCLib/inc\xmc_gpio.h **** #ifndef XMC_GPIO_H
  51:F:/GitHub Projects/FH Luzern/BAT/BAT/Libraries/XMCLib/inc\xmc_gpio.h **** #define XMC_GPIO_H
  52:F:/GitHub Projects/FH Luzern/BAT/BAT/Libraries/XMCLib/inc\xmc_gpio.h **** 
  53:F:/GitHub Projects/FH Luzern/BAT/BAT/Libraries/XMCLib/inc\xmc_gpio.h **** /**************************************************************************************************
  54:F:/GitHub Projects/FH Luzern/BAT/BAT/Libraries/XMCLib/inc\xmc_gpio.h ****  * HEADER FILES
  55:F:/GitHub Projects/FH Luzern/BAT/BAT/Libraries/XMCLib/inc\xmc_gpio.h ****  **************************************************************************************************
  56:F:/GitHub Projects/FH Luzern/BAT/BAT/Libraries/XMCLib/inc\xmc_gpio.h **** 
  57:F:/GitHub Projects/FH Luzern/BAT/BAT/Libraries/XMCLib/inc\xmc_gpio.h **** #include "xmc_common.h"
  58:F:/GitHub Projects/FH Luzern/BAT/BAT/Libraries/XMCLib/inc\xmc_gpio.h **** 
  59:F:/GitHub Projects/FH Luzern/BAT/BAT/Libraries/XMCLib/inc\xmc_gpio.h **** /**
  60:F:/GitHub Projects/FH Luzern/BAT/BAT/Libraries/XMCLib/inc\xmc_gpio.h ****  * @addtogroup XMClib XMC Peripheral Library
  61:F:/GitHub Projects/FH Luzern/BAT/BAT/Libraries/XMCLib/inc\xmc_gpio.h ****  * @{
  62:F:/GitHub Projects/FH Luzern/BAT/BAT/Libraries/XMCLib/inc\xmc_gpio.h ****  */
  63:F:/GitHub Projects/FH Luzern/BAT/BAT/Libraries/XMCLib/inc\xmc_gpio.h **** 
  64:F:/GitHub Projects/FH Luzern/BAT/BAT/Libraries/XMCLib/inc\xmc_gpio.h **** /**
  65:F:/GitHub Projects/FH Luzern/BAT/BAT/Libraries/XMCLib/inc\xmc_gpio.h ****  * @addtogroup GPIO
  66:F:/GitHub Projects/FH Luzern/BAT/BAT/Libraries/XMCLib/inc\xmc_gpio.h ****  * @brief General Purpose Input Output (GPIO) driver for the XMC microcontroller family.
  67:F:/GitHub Projects/FH Luzern/BAT/BAT/Libraries/XMCLib/inc\xmc_gpio.h ****  *
  68:F:/GitHub Projects/FH Luzern/BAT/BAT/Libraries/XMCLib/inc\xmc_gpio.h ****  * GPIO driver provide a generic and very flexible software interface for all standard digital I/O 
  69:F:/GitHub Projects/FH Luzern/BAT/BAT/Libraries/XMCLib/inc\xmc_gpio.h ****  * Each port slice has individual interfaces for the operation as General Purpose I/O and it furthe
  70:F:/GitHub Projects/FH Luzern/BAT/BAT/Libraries/XMCLib/inc\xmc_gpio.h ****  * connectivity to the on-chip periphery and the control for the pad characteristics. 
  71:F:/GitHub Projects/FH Luzern/BAT/BAT/Libraries/XMCLib/inc\xmc_gpio.h ****  *
  72:F:/GitHub Projects/FH Luzern/BAT/BAT/Libraries/XMCLib/inc\xmc_gpio.h ****  * The driver is divided into Input and Output mode.
  73:F:/GitHub Projects/FH Luzern/BAT/BAT/Libraries/XMCLib/inc\xmc_gpio.h ****  *
  74:F:/GitHub Projects/FH Luzern/BAT/BAT/Libraries/XMCLib/inc\xmc_gpio.h ****  * Input mode features:
  75:F:/GitHub Projects/FH Luzern/BAT/BAT/Libraries/XMCLib/inc\xmc_gpio.h ****  * -# Configuration structure XMC_GPIO_CONFIG_t and initialization function XMC_GPIO_Init()
  76:F:/GitHub Projects/FH Luzern/BAT/BAT/Libraries/XMCLib/inc\xmc_gpio.h ****  * -# Allows the selection of weak pull-up or pull-down device. Configuration structure XMC_GPIO_MO
  77:F:/GitHub Projects/FH Luzern/BAT/BAT/Libraries/XMCLib/inc\xmc_gpio.h ****  * \if XMC1
  78:F:/GitHub Projects/FH Luzern/BAT/BAT/Libraries/XMCLib/inc\xmc_gpio.h ****  * -# Allows the selection of input hysteresis. XMC_GPIO_SetInputHysteresis()
  79:F:/GitHub Projects/FH Luzern/BAT/BAT/Libraries/XMCLib/inc\xmc_gpio.h ****  * \endif
  80:F:/GitHub Projects/FH Luzern/BAT/BAT/Libraries/XMCLib/inc\xmc_gpio.h ****  *
  81:F:/GitHub Projects/FH Luzern/BAT/BAT/Libraries/XMCLib/inc\xmc_gpio.h ****  * 
  82:F:/GitHub Projects/FH Luzern/BAT/BAT/Libraries/XMCLib/inc\xmc_gpio.h ****  * Output mode features:
  83:F:/GitHub Projects/FH Luzern/BAT/BAT/Libraries/XMCLib/inc\xmc_gpio.h ****  * -# Allows the selection of push pull/open drain and Alternate output. Configuration structure XM
  84:F:/GitHub Projects/FH Luzern/BAT/BAT/Libraries/XMCLib/inc\xmc_gpio.h ****  * \if XMC4
  85:F:/GitHub Projects/FH Luzern/BAT/BAT/Libraries/XMCLib/inc\xmc_gpio.h ****  * -# Allows the selection of pad driver strength. Configuration structure XMC_GPIO_OUTPUT_STRENGTH
  86:F:/GitHub Projects/FH Luzern/BAT/BAT/Libraries/XMCLib/inc\xmc_gpio.h ****  * \endif
  87:F:/GitHub Projects/FH Luzern/BAT/BAT/Libraries/XMCLib/inc\xmc_gpio.h ****  *
  88:F:/GitHub Projects/FH Luzern/BAT/BAT/Libraries/XMCLib/inc\xmc_gpio.h ****  * -# Allows the selection of initial output level. Configuration structure XMC_GPIO_OUTPUT_LEVEL_t
  89:F:/GitHub Projects/FH Luzern/BAT/BAT/Libraries/XMCLib/inc\xmc_gpio.h ****  *
  90:F:/GitHub Projects/FH Luzern/BAT/BAT/Libraries/XMCLib/inc\xmc_gpio.h ****  *@{
  91:F:/GitHub Projects/FH Luzern/BAT/BAT/Libraries/XMCLib/inc\xmc_gpio.h ****  */
  92:F:/GitHub Projects/FH Luzern/BAT/BAT/Libraries/XMCLib/inc\xmc_gpio.h ****  
  93:F:/GitHub Projects/FH Luzern/BAT/BAT/Libraries/XMCLib/inc\xmc_gpio.h **** /**************************************************************************************************
  94:F:/GitHub Projects/FH Luzern/BAT/BAT/Libraries/XMCLib/inc\xmc_gpio.h ****  * MACROS
  95:F:/GitHub Projects/FH Luzern/BAT/BAT/Libraries/XMCLib/inc\xmc_gpio.h ****  **************************************************************************************************
  96:F:/GitHub Projects/FH Luzern/BAT/BAT/Libraries/XMCLib/inc\xmc_gpio.h **** 
  97:F:/GitHub Projects/FH Luzern/BAT/BAT/Libraries/XMCLib/inc\xmc_gpio.h **** #define PORT_IOCR_PC_Pos PORT0_IOCR0_PC0_Pos
  98:F:/GitHub Projects/FH Luzern/BAT/BAT/Libraries/XMCLib/inc\xmc_gpio.h **** #define PORT_IOCR_PC_Msk PORT0_IOCR0_PC0_Msk
  99:F:/GitHub Projects/FH Luzern/BAT/BAT/Libraries/XMCLib/inc\xmc_gpio.h **** 
 100:F:/GitHub Projects/FH Luzern/BAT/BAT/Libraries/XMCLib/inc\xmc_gpio.h **** #define PORT_IOCR_PC_Size 				(8U)
 101:F:/GitHub Projects/FH Luzern/BAT/BAT/Libraries/XMCLib/inc\xmc_gpio.h **** 											
 102:F:/GitHub Projects/FH Luzern/BAT/BAT/Libraries/XMCLib/inc\xmc_gpio.h **** 
 103:F:/GitHub Projects/FH Luzern/BAT/BAT/Libraries/XMCLib/inc\xmc_gpio.h **** #define XMC_GPIO_CHECK_OUTPUT_LEVEL(level) ((level == XMC_GPIO_OUTPUT_LEVEL_LOW) || \
 104:F:/GitHub Projects/FH Luzern/BAT/BAT/Libraries/XMCLib/inc\xmc_gpio.h ****                                             (level == XMC_GPIO_OUTPUT_LEVEL_HIGH))
 105:F:/GitHub Projects/FH Luzern/BAT/BAT/Libraries/XMCLib/inc\xmc_gpio.h ****                                             
 106:F:/GitHub Projects/FH Luzern/BAT/BAT/Libraries/XMCLib/inc\xmc_gpio.h **** #define XMC_GPIO_CHECK_HWCTRL(hwctrl) ((hwctrl == XMC_GPIO_HWCTRL_DISABLED) || \
 107:F:/GitHub Projects/FH Luzern/BAT/BAT/Libraries/XMCLib/inc\xmc_gpio.h ****                                        (hwctrl == XMC_GPIO_HWCTRL_PERIPHERAL1) || \
 108:F:/GitHub Projects/FH Luzern/BAT/BAT/Libraries/XMCLib/inc\xmc_gpio.h ****                                        (hwctrl == XMC_GPIO_HWCTRL_PERIPHERAL2))                    
 109:F:/GitHub Projects/FH Luzern/BAT/BAT/Libraries/XMCLib/inc\xmc_gpio.h ****                                             
 110:F:/GitHub Projects/FH Luzern/BAT/BAT/Libraries/XMCLib/inc\xmc_gpio.h **** /**************************************************************************************************
 111:F:/GitHub Projects/FH Luzern/BAT/BAT/Libraries/XMCLib/inc\xmc_gpio.h ****  * ENUMS
 112:F:/GitHub Projects/FH Luzern/BAT/BAT/Libraries/XMCLib/inc\xmc_gpio.h ****  **************************************************************************************************
 113:F:/GitHub Projects/FH Luzern/BAT/BAT/Libraries/XMCLib/inc\xmc_gpio.h **** 
 114:F:/GitHub Projects/FH Luzern/BAT/BAT/Libraries/XMCLib/inc\xmc_gpio.h **** 
 115:F:/GitHub Projects/FH Luzern/BAT/BAT/Libraries/XMCLib/inc\xmc_gpio.h **** /**
 116:F:/GitHub Projects/FH Luzern/BAT/BAT/Libraries/XMCLib/inc\xmc_gpio.h ****  * Defines output level of a pin. Use type \a XMC_GPIO_OUTPUT_LEVEL_t for this enum.
 117:F:/GitHub Projects/FH Luzern/BAT/BAT/Libraries/XMCLib/inc\xmc_gpio.h ****  */
 118:F:/GitHub Projects/FH Luzern/BAT/BAT/Libraries/XMCLib/inc\xmc_gpio.h **** typedef enum XMC_GPIO_OUTPUT_LEVEL
 119:F:/GitHub Projects/FH Luzern/BAT/BAT/Libraries/XMCLib/inc\xmc_gpio.h **** {
 120:F:/GitHub Projects/FH Luzern/BAT/BAT/Libraries/XMCLib/inc\xmc_gpio.h ****   XMC_GPIO_OUTPUT_LEVEL_LOW  = 0x10000U, /**<  Reset bit */
 121:F:/GitHub Projects/FH Luzern/BAT/BAT/Libraries/XMCLib/inc\xmc_gpio.h ****   XMC_GPIO_OUTPUT_LEVEL_HIGH = 0x1U, 	/**< Set bit  */
 122:F:/GitHub Projects/FH Luzern/BAT/BAT/Libraries/XMCLib/inc\xmc_gpio.h **** } XMC_GPIO_OUTPUT_LEVEL_t;
 123:F:/GitHub Projects/FH Luzern/BAT/BAT/Libraries/XMCLib/inc\xmc_gpio.h **** 
 124:F:/GitHub Projects/FH Luzern/BAT/BAT/Libraries/XMCLib/inc\xmc_gpio.h **** /**
 125:F:/GitHub Projects/FH Luzern/BAT/BAT/Libraries/XMCLib/inc\xmc_gpio.h ****  * Defines direct hardware control characteristics of the pin . Use type \a XMC_GPIO_HWCTRL_t for t
 126:F:/GitHub Projects/FH Luzern/BAT/BAT/Libraries/XMCLib/inc\xmc_gpio.h ****  */
 127:F:/GitHub Projects/FH Luzern/BAT/BAT/Libraries/XMCLib/inc\xmc_gpio.h **** typedef enum XMC_GPIO_HWCTRL
 128:F:/GitHub Projects/FH Luzern/BAT/BAT/Libraries/XMCLib/inc\xmc_gpio.h **** {
 129:F:/GitHub Projects/FH Luzern/BAT/BAT/Libraries/XMCLib/inc\xmc_gpio.h ****   XMC_GPIO_HWCTRL_DISABLED     = 0x0U, /**<  Software control only */
 130:F:/GitHub Projects/FH Luzern/BAT/BAT/Libraries/XMCLib/inc\xmc_gpio.h ****   XMC_GPIO_HWCTRL_PERIPHERAL1  = 0x1U, /**<  HWI0/HWO0 control path can override the software confi
 131:F:/GitHub Projects/FH Luzern/BAT/BAT/Libraries/XMCLib/inc\xmc_gpio.h ****   XMC_GPIO_HWCTRL_PERIPHERAL2  = 0x2U  /**<  HWI1/HWO1 control path can override the software confi
 132:F:/GitHub Projects/FH Luzern/BAT/BAT/Libraries/XMCLib/inc\xmc_gpio.h **** } XMC_GPIO_HWCTRL_t;
 133:F:/GitHub Projects/FH Luzern/BAT/BAT/Libraries/XMCLib/inc\xmc_gpio.h **** 
 134:F:/GitHub Projects/FH Luzern/BAT/BAT/Libraries/XMCLib/inc\xmc_gpio.h **** /**************************************************************************************************
 135:F:/GitHub Projects/FH Luzern/BAT/BAT/Libraries/XMCLib/inc\xmc_gpio.h ****  * DEVICE FAMILY EXTENSIONS
 136:F:/GitHub Projects/FH Luzern/BAT/BAT/Libraries/XMCLib/inc\xmc_gpio.h ****  **************************************************************************************************
 137:F:/GitHub Projects/FH Luzern/BAT/BAT/Libraries/XMCLib/inc\xmc_gpio.h **** 
 138:F:/GitHub Projects/FH Luzern/BAT/BAT/Libraries/XMCLib/inc\xmc_gpio.h ****  #if UC_FAMILY == XMC1
 139:F:/GitHub Projects/FH Luzern/BAT/BAT/Libraries/XMCLib/inc\xmc_gpio.h **** #include "xmc1_gpio.h"
 140:F:/GitHub Projects/FH Luzern/BAT/BAT/Libraries/XMCLib/inc\xmc_gpio.h **** #elif UC_FAMILY == XMC4
 141:F:/GitHub Projects/FH Luzern/BAT/BAT/Libraries/XMCLib/inc\xmc_gpio.h **** #include "xmc4_gpio.h"
 142:F:/GitHub Projects/FH Luzern/BAT/BAT/Libraries/XMCLib/inc\xmc_gpio.h **** #else
 143:F:/GitHub Projects/FH Luzern/BAT/BAT/Libraries/XMCLib/inc\xmc_gpio.h **** #error "xmc_gpio.h: family device not supported"
 144:F:/GitHub Projects/FH Luzern/BAT/BAT/Libraries/XMCLib/inc\xmc_gpio.h **** #endif
 145:F:/GitHub Projects/FH Luzern/BAT/BAT/Libraries/XMCLib/inc\xmc_gpio.h **** 
 146:F:/GitHub Projects/FH Luzern/BAT/BAT/Libraries/XMCLib/inc\xmc_gpio.h **** /**************************************************************************************************
 147:F:/GitHub Projects/FH Luzern/BAT/BAT/Libraries/XMCLib/inc\xmc_gpio.h ****  * API PROTOTYPES
 148:F:/GitHub Projects/FH Luzern/BAT/BAT/Libraries/XMCLib/inc\xmc_gpio.h ****  **************************************************************************************************
 149:F:/GitHub Projects/FH Luzern/BAT/BAT/Libraries/XMCLib/inc\xmc_gpio.h **** 
 150:F:/GitHub Projects/FH Luzern/BAT/BAT/Libraries/XMCLib/inc\xmc_gpio.h **** #ifdef __cplusplus
 151:F:/GitHub Projects/FH Luzern/BAT/BAT/Libraries/XMCLib/inc\xmc_gpio.h **** extern "C" {
 152:F:/GitHub Projects/FH Luzern/BAT/BAT/Libraries/XMCLib/inc\xmc_gpio.h **** #endif
 153:F:/GitHub Projects/FH Luzern/BAT/BAT/Libraries/XMCLib/inc\xmc_gpio.h **** 
 154:F:/GitHub Projects/FH Luzern/BAT/BAT/Libraries/XMCLib/inc\xmc_gpio.h **** 
 155:F:/GitHub Projects/FH Luzern/BAT/BAT/Libraries/XMCLib/inc\xmc_gpio.h **** /**
 156:F:/GitHub Projects/FH Luzern/BAT/BAT/Libraries/XMCLib/inc\xmc_gpio.h ****  * @param  port	  Constant pointer pointing to GPIO port, to access port registers like Pn_OUT,Pn_O
 157:F:/GitHub Projects/FH Luzern/BAT/BAT/Libraries/XMCLib/inc\xmc_gpio.h ****  * @param  pin	  Port pin number.
 158:F:/GitHub Projects/FH Luzern/BAT/BAT/Libraries/XMCLib/inc\xmc_gpio.h ****  * @param  config GPIO configuration data structure. Refer data structure @ref XMC_GPIO_CONFIG_t fo
 159:F:/GitHub Projects/FH Luzern/BAT/BAT/Libraries/XMCLib/inc\xmc_gpio.h ****  *
 160:F:/GitHub Projects/FH Luzern/BAT/BAT/Libraries/XMCLib/inc\xmc_gpio.h ****  * @return None
 161:F:/GitHub Projects/FH Luzern/BAT/BAT/Libraries/XMCLib/inc\xmc_gpio.h ****  *
 162:F:/GitHub Projects/FH Luzern/BAT/BAT/Libraries/XMCLib/inc\xmc_gpio.h ****  * \par<b>Description:</b><br>
 163:F:/GitHub Projects/FH Luzern/BAT/BAT/Libraries/XMCLib/inc\xmc_gpio.h ****  * \if XMC1
 164:F:/GitHub Projects/FH Luzern/BAT/BAT/Libraries/XMCLib/inc\xmc_gpio.h ****  * Initializes input / output mode settings like, pull up / pull down devices,hysteresis, push pull
 165:F:/GitHub Projects/FH Luzern/BAT/BAT/Libraries/XMCLib/inc\xmc_gpio.h ****  * Also configures alternate function outputs and clears hardware port control for a selected \a po
 166:F:/GitHub Projects/FH Luzern/BAT/BAT/Libraries/XMCLib/inc\xmc_gpio.h ****  * \a config provides selected I/O settings. It configures hardware registers Pn_IOCR,Pn_OUT, Pn_OM
 167:F:/GitHub Projects/FH Luzern/BAT/BAT/Libraries/XMCLib/inc\xmc_gpio.h ****  * \endif
 168:F:/GitHub Projects/FH Luzern/BAT/BAT/Libraries/XMCLib/inc\xmc_gpio.h ****  * \if XMC4
 169:F:/GitHub Projects/FH Luzern/BAT/BAT/Libraries/XMCLib/inc\xmc_gpio.h ****  * Initializes input / output mode settings like, pull up / pull down devices,push pull /open drain
 170:F:/GitHub Projects/FH Luzern/BAT/BAT/Libraries/XMCLib/inc\xmc_gpio.h ****  * Also configures alternate function outputs and clears hardware port control for selected \a port
 171:F:/GitHub Projects/FH Luzern/BAT/BAT/Libraries/XMCLib/inc\xmc_gpio.h ****  * It configures hardware registers Pn_IOCR,Pn_OUT,Pn_OMR,Pn_PDISC and Pn_PDR.\n
 172:F:/GitHub Projects/FH Luzern/BAT/BAT/Libraries/XMCLib/inc\xmc_gpio.h ****  * \endif
 173:F:/GitHub Projects/FH Luzern/BAT/BAT/Libraries/XMCLib/inc\xmc_gpio.h ****  *
 174:F:/GitHub Projects/FH Luzern/BAT/BAT/Libraries/XMCLib/inc\xmc_gpio.h ****  * \par<b>Related APIs:</b><BR>
 175:F:/GitHub Projects/FH Luzern/BAT/BAT/Libraries/XMCLib/inc\xmc_gpio.h ****  *  None
 176:F:/GitHub Projects/FH Luzern/BAT/BAT/Libraries/XMCLib/inc\xmc_gpio.h ****  *
 177:F:/GitHub Projects/FH Luzern/BAT/BAT/Libraries/XMCLib/inc\xmc_gpio.h ****  * \par<b>Note:</b><br>
 178:F:/GitHub Projects/FH Luzern/BAT/BAT/Libraries/XMCLib/inc\xmc_gpio.h ****  * This API is called in definition of DAVE_init by code generation and therefore should not be exp
 179:F:/GitHub Projects/FH Luzern/BAT/BAT/Libraries/XMCLib/inc\xmc_gpio.h ****  * for the normal operation. Use other APIs only after DAVE_init is called successfully (returns DA
 180:F:/GitHub Projects/FH Luzern/BAT/BAT/Libraries/XMCLib/inc\xmc_gpio.h ****  *
 181:F:/GitHub Projects/FH Luzern/BAT/BAT/Libraries/XMCLib/inc\xmc_gpio.h ****  *
 182:F:/GitHub Projects/FH Luzern/BAT/BAT/Libraries/XMCLib/inc\xmc_gpio.h ****  */
 183:F:/GitHub Projects/FH Luzern/BAT/BAT/Libraries/XMCLib/inc\xmc_gpio.h **** 
 184:F:/GitHub Projects/FH Luzern/BAT/BAT/Libraries/XMCLib/inc\xmc_gpio.h ****  
 185:F:/GitHub Projects/FH Luzern/BAT/BAT/Libraries/XMCLib/inc\xmc_gpio.h **** void XMC_GPIO_Init(XMC_GPIO_PORT_t *const port, const uint8_t pin, const XMC_GPIO_CONFIG_t *const c
 186:F:/GitHub Projects/FH Luzern/BAT/BAT/Libraries/XMCLib/inc\xmc_gpio.h ****  
 187:F:/GitHub Projects/FH Luzern/BAT/BAT/Libraries/XMCLib/inc\xmc_gpio.h **** /**
 188:F:/GitHub Projects/FH Luzern/BAT/BAT/Libraries/XMCLib/inc\xmc_gpio.h ****  *
 189:F:/GitHub Projects/FH Luzern/BAT/BAT/Libraries/XMCLib/inc\xmc_gpio.h ****  * @param  port	Constant pointer pointing to GPIO port, to access hardware register Pn_IOCR.
 190:F:/GitHub Projects/FH Luzern/BAT/BAT/Libraries/XMCLib/inc\xmc_gpio.h ****  * @param  pin	Port pin number.
 191:F:/GitHub Projects/FH Luzern/BAT/BAT/Libraries/XMCLib/inc\xmc_gpio.h ****  * @param  mode input / output functionality selection. Refer @ref XMC_GPIO_MODE_t for valid values
 192:F:/GitHub Projects/FH Luzern/BAT/BAT/Libraries/XMCLib/inc\xmc_gpio.h ****  *
 193:F:/GitHub Projects/FH Luzern/BAT/BAT/Libraries/XMCLib/inc\xmc_gpio.h ****  * @return None
 194:F:/GitHub Projects/FH Luzern/BAT/BAT/Libraries/XMCLib/inc\xmc_gpio.h ****  *
 195:F:/GitHub Projects/FH Luzern/BAT/BAT/Libraries/XMCLib/inc\xmc_gpio.h ****  * \par<b>Description:</b><br>
 196:F:/GitHub Projects/FH Luzern/BAT/BAT/Libraries/XMCLib/inc\xmc_gpio.h ****  * Sets digital input and output driver functionality and characteristics of a GPIO port pin. It co
 197:F:/GitHub Projects/FH Luzern/BAT/BAT/Libraries/XMCLib/inc\xmc_gpio.h ****  * registers Pn_IOCR. \a mode is initially configured during initialization in XMC_GPIO_Init(). Cal
 198:F:/GitHub Projects/FH Luzern/BAT/BAT/Libraries/XMCLib/inc\xmc_gpio.h ****  * the port direction functionality as needed later in the program.
 199:F:/GitHub Projects/FH Luzern/BAT/BAT/Libraries/XMCLib/inc\xmc_gpio.h ****  *
 200:F:/GitHub Projects/FH Luzern/BAT/BAT/Libraries/XMCLib/inc\xmc_gpio.h ****  * \par<b>Related APIs:</b><BR>
 201:F:/GitHub Projects/FH Luzern/BAT/BAT/Libraries/XMCLib/inc\xmc_gpio.h ****  *  None
 202:F:/GitHub Projects/FH Luzern/BAT/BAT/Libraries/XMCLib/inc\xmc_gpio.h ****  *
 203:F:/GitHub Projects/FH Luzern/BAT/BAT/Libraries/XMCLib/inc\xmc_gpio.h ****  */
 204:F:/GitHub Projects/FH Luzern/BAT/BAT/Libraries/XMCLib/inc\xmc_gpio.h **** 
 205:F:/GitHub Projects/FH Luzern/BAT/BAT/Libraries/XMCLib/inc\xmc_gpio.h **** void XMC_GPIO_SetMode(XMC_GPIO_PORT_t *const port, const uint8_t pin, const XMC_GPIO_MODE_t mode);
 206:F:/GitHub Projects/FH Luzern/BAT/BAT/Libraries/XMCLib/inc\xmc_gpio.h **** 
 207:F:/GitHub Projects/FH Luzern/BAT/BAT/Libraries/XMCLib/inc\xmc_gpio.h **** 
 208:F:/GitHub Projects/FH Luzern/BAT/BAT/Libraries/XMCLib/inc\xmc_gpio.h **** /**
 209:F:/GitHub Projects/FH Luzern/BAT/BAT/Libraries/XMCLib/inc\xmc_gpio.h ****  *
 210:F:/GitHub Projects/FH Luzern/BAT/BAT/Libraries/XMCLib/inc\xmc_gpio.h ****  * @param  port	 Constant pointer pointing to GPIO port, to access hardware register Pn_OMR.
 211:F:/GitHub Projects/FH Luzern/BAT/BAT/Libraries/XMCLib/inc\xmc_gpio.h ****  * @param  pin	 Port pin number.
 212:F:/GitHub Projects/FH Luzern/BAT/BAT/Libraries/XMCLib/inc\xmc_gpio.h ****  * @param  level output level selection. Refer @ref XMC_GPIO_OUTPUT_LEVEL_t for valid values.
 213:F:/GitHub Projects/FH Luzern/BAT/BAT/Libraries/XMCLib/inc\xmc_gpio.h ****  *
 214:F:/GitHub Projects/FH Luzern/BAT/BAT/Libraries/XMCLib/inc\xmc_gpio.h ****  * @return None
 215:F:/GitHub Projects/FH Luzern/BAT/BAT/Libraries/XMCLib/inc\xmc_gpio.h ****  *
 216:F:/GitHub Projects/FH Luzern/BAT/BAT/Libraries/XMCLib/inc\xmc_gpio.h ****  * \par<b>Description:</b><br>
 217:F:/GitHub Projects/FH Luzern/BAT/BAT/Libraries/XMCLib/inc\xmc_gpio.h ****  * Set port pin output level to high or low.It configures hardware registers Pn_OMR.\a level is ini
 218:F:/GitHub Projects/FH Luzern/BAT/BAT/Libraries/XMCLib/inc\xmc_gpio.h ****  * configured during initialization in XMC_GPIO_Init(). Call this API to alter output level as need
 219:F:/GitHub Projects/FH Luzern/BAT/BAT/Libraries/XMCLib/inc\xmc_gpio.h ****  *
 220:F:/GitHub Projects/FH Luzern/BAT/BAT/Libraries/XMCLib/inc\xmc_gpio.h ****  * \par<b>Related APIs:</b><BR>
 221:F:/GitHub Projects/FH Luzern/BAT/BAT/Libraries/XMCLib/inc\xmc_gpio.h ****  *  XMC_GPIO_SetOutputHigh(), XMC_GPIO_SetOutputLow().
 222:F:/GitHub Projects/FH Luzern/BAT/BAT/Libraries/XMCLib/inc\xmc_gpio.h ****  *
 223:F:/GitHub Projects/FH Luzern/BAT/BAT/Libraries/XMCLib/inc\xmc_gpio.h ****  * \par<b>Note:</b><br>
 224:F:/GitHub Projects/FH Luzern/BAT/BAT/Libraries/XMCLib/inc\xmc_gpio.h ****  * Prior to this api, user has to configure port pin to output mode using XMC_GPIO_SetMode().
 225:F:/GitHub Projects/FH Luzern/BAT/BAT/Libraries/XMCLib/inc\xmc_gpio.h ****  *
 226:F:/GitHub Projects/FH Luzern/BAT/BAT/Libraries/XMCLib/inc\xmc_gpio.h ****  */
 227:F:/GitHub Projects/FH Luzern/BAT/BAT/Libraries/XMCLib/inc\xmc_gpio.h **** 
 228:F:/GitHub Projects/FH Luzern/BAT/BAT/Libraries/XMCLib/inc\xmc_gpio.h **** 
 229:F:/GitHub Projects/FH Luzern/BAT/BAT/Libraries/XMCLib/inc\xmc_gpio.h **** __STATIC_INLINE void XMC_GPIO_SetOutputLevel(XMC_GPIO_PORT_t *const port, const uint8_t pin, const 
 230:F:/GitHub Projects/FH Luzern/BAT/BAT/Libraries/XMCLib/inc\xmc_gpio.h **** {
 231:F:/GitHub Projects/FH Luzern/BAT/BAT/Libraries/XMCLib/inc\xmc_gpio.h ****   XMC_ASSERT("XMC_GPIO_SetOutputLevel: Invalid port", XMC_GPIO_CHECK_OUTPUT_PORT(port));
 232:F:/GitHub Projects/FH Luzern/BAT/BAT/Libraries/XMCLib/inc\xmc_gpio.h ****   XMC_ASSERT("XMC_GPIO_SetOutputLevel: Invalid output level", XMC_GPIO_CHECK_OUTPUT_LEVEL(level));
 233:F:/GitHub Projects/FH Luzern/BAT/BAT/Libraries/XMCLib/inc\xmc_gpio.h ****   
 234:F:/GitHub Projects/FH Luzern/BAT/BAT/Libraries/XMCLib/inc\xmc_gpio.h ****   port->OMR = (uint32_t)level << pin;
 235:F:/GitHub Projects/FH Luzern/BAT/BAT/Libraries/XMCLib/inc\xmc_gpio.h **** }
 236:F:/GitHub Projects/FH Luzern/BAT/BAT/Libraries/XMCLib/inc\xmc_gpio.h **** 
 237:F:/GitHub Projects/FH Luzern/BAT/BAT/Libraries/XMCLib/inc\xmc_gpio.h **** 
 238:F:/GitHub Projects/FH Luzern/BAT/BAT/Libraries/XMCLib/inc\xmc_gpio.h **** /**
 239:F:/GitHub Projects/FH Luzern/BAT/BAT/Libraries/XMCLib/inc\xmc_gpio.h ****  * @param  port constant pointer pointing to GPIO port, to access hardware register Pn_OMR.
 240:F:/GitHub Projects/FH Luzern/BAT/BAT/Libraries/XMCLib/inc\xmc_gpio.h ****  * @param  pin	Port pin number.
 241:F:/GitHub Projects/FH Luzern/BAT/BAT/Libraries/XMCLib/inc\xmc_gpio.h ****  *
 242:F:/GitHub Projects/FH Luzern/BAT/BAT/Libraries/XMCLib/inc\xmc_gpio.h ****  * @return None
 243:F:/GitHub Projects/FH Luzern/BAT/BAT/Libraries/XMCLib/inc\xmc_gpio.h ****  *
 244:F:/GitHub Projects/FH Luzern/BAT/BAT/Libraries/XMCLib/inc\xmc_gpio.h ****  * \par<b>Description:</b><br>
 245:F:/GitHub Projects/FH Luzern/BAT/BAT/Libraries/XMCLib/inc\xmc_gpio.h ****  *  Sets port pin output to high. It configures hardware registers Pn_OMR.
 246:F:/GitHub Projects/FH Luzern/BAT/BAT/Libraries/XMCLib/inc\xmc_gpio.h ****  *
 247:F:/GitHub Projects/FH Luzern/BAT/BAT/Libraries/XMCLib/inc\xmc_gpio.h ****  *  \par<b>Related APIs:</b><BR>
 248:F:/GitHub Projects/FH Luzern/BAT/BAT/Libraries/XMCLib/inc\xmc_gpio.h ****  *  XMC_GPIO_SetOutputLow()
 249:F:/GitHub Projects/FH Luzern/BAT/BAT/Libraries/XMCLib/inc\xmc_gpio.h ****  *
 250:F:/GitHub Projects/FH Luzern/BAT/BAT/Libraries/XMCLib/inc\xmc_gpio.h ****  * \par<b>Note:</b><br>
 251:F:/GitHub Projects/FH Luzern/BAT/BAT/Libraries/XMCLib/inc\xmc_gpio.h ****  * Prior to this api, user has to configure port pin to output mode using XMC_GPIO_SetMode().\n
 252:F:/GitHub Projects/FH Luzern/BAT/BAT/Libraries/XMCLib/inc\xmc_gpio.h ****  * Register Pn_OMR is virtual and does not contain any flip-flop. A read action delivers the value 
 253:F:/GitHub Projects/FH Luzern/BAT/BAT/Libraries/XMCLib/inc\xmc_gpio.h ****  *
 254:F:/GitHub Projects/FH Luzern/BAT/BAT/Libraries/XMCLib/inc\xmc_gpio.h ****  */
 255:F:/GitHub Projects/FH Luzern/BAT/BAT/Libraries/XMCLib/inc\xmc_gpio.h **** 
 256:F:/GitHub Projects/FH Luzern/BAT/BAT/Libraries/XMCLib/inc\xmc_gpio.h **** __STATIC_INLINE void XMC_GPIO_SetOutputHigh(XMC_GPIO_PORT_t *const port, const uint8_t pin)
 257:F:/GitHub Projects/FH Luzern/BAT/BAT/Libraries/XMCLib/inc\xmc_gpio.h **** {
  27              	 .loc 1 257 0
  28              	 .cfi_startproc
  29              	 
  30              	 
  31              	 
  32 0000 80B4     	 push {r7}
  33              	.LCFI0:
  34              	 .cfi_def_cfa_offset 4
  35              	 .cfi_offset 7,-4
  36 0002 83B0     	 sub sp,sp,#12
  37              	.LCFI1:
  38              	 .cfi_def_cfa_offset 16
  39 0004 00AF     	 add r7,sp,#0
  40              	.LCFI2:
  41              	 .cfi_def_cfa_register 7
  42 0006 7860     	 str r0,[r7,#4]
  43 0008 0B46     	 mov r3,r1
  44 000a FB70     	 strb r3,[r7,#3]
 258:F:/GitHub Projects/FH Luzern/BAT/BAT/Libraries/XMCLib/inc\xmc_gpio.h ****   XMC_ASSERT("XMC_GPIO_SetOutputHigh: Invalid port", XMC_GPIO_CHECK_OUTPUT_PORT(port));
 259:F:/GitHub Projects/FH Luzern/BAT/BAT/Libraries/XMCLib/inc\xmc_gpio.h **** 
 260:F:/GitHub Projects/FH Luzern/BAT/BAT/Libraries/XMCLib/inc\xmc_gpio.h ****   port->OMR = (uint32_t)0x1U << pin;
  45              	 .loc 1 260 0
  46 000c FB78     	 ldrb r3,[r7,#3]
  47 000e 0122     	 movs r2,#1
  48 0010 9A40     	 lsls r2,r2,r3
  49 0012 7B68     	 ldr r3,[r7,#4]
  50 0014 5A60     	 str r2,[r3,#4]
 261:F:/GitHub Projects/FH Luzern/BAT/BAT/Libraries/XMCLib/inc\xmc_gpio.h **** }
  51              	 .loc 1 261 0
  52 0016 0C37     	 adds r7,r7,#12
  53              	.LCFI3:
  54              	 .cfi_def_cfa_offset 4
  55 0018 BD46     	 mov sp,r7
  56              	.LCFI4:
  57              	 .cfi_def_cfa_register 13
  58              	 
  59 001a 5DF8047B 	 ldr r7,[sp],#4
  60              	.LCFI5:
  61              	 .cfi_restore 7
  62              	 .cfi_def_cfa_offset 0
  63 001e 7047     	 bx lr
  64              	 .cfi_endproc
  65              	.LFE170:
  67              	 .section .text.XMC_GPIO_SetOutputLow,"ax",%progbits
  68              	 .align 2
  69              	 .thumb
  70              	 .thumb_func
  72              	XMC_GPIO_SetOutputLow:
  73              	.LFB171:
 262:F:/GitHub Projects/FH Luzern/BAT/BAT/Libraries/XMCLib/inc\xmc_gpio.h **** 
 263:F:/GitHub Projects/FH Luzern/BAT/BAT/Libraries/XMCLib/inc\xmc_gpio.h **** /**
 264:F:/GitHub Projects/FH Luzern/BAT/BAT/Libraries/XMCLib/inc\xmc_gpio.h ****  *
 265:F:/GitHub Projects/FH Luzern/BAT/BAT/Libraries/XMCLib/inc\xmc_gpio.h ****  * @param  port	constant pointer pointing to GPIO port, to access hardware register Pn_OMR.
 266:F:/GitHub Projects/FH Luzern/BAT/BAT/Libraries/XMCLib/inc\xmc_gpio.h ****  * @param  pin	port pin number.
 267:F:/GitHub Projects/FH Luzern/BAT/BAT/Libraries/XMCLib/inc\xmc_gpio.h ****  *
 268:F:/GitHub Projects/FH Luzern/BAT/BAT/Libraries/XMCLib/inc\xmc_gpio.h ****  * @return  None
 269:F:/GitHub Projects/FH Luzern/BAT/BAT/Libraries/XMCLib/inc\xmc_gpio.h ****  *
 270:F:/GitHub Projects/FH Luzern/BAT/BAT/Libraries/XMCLib/inc\xmc_gpio.h ****  *\par<b>Description:</b><br>
 271:F:/GitHub Projects/FH Luzern/BAT/BAT/Libraries/XMCLib/inc\xmc_gpio.h ****  * Sets port pin output to low. It configures hardware registers Pn_OMR.\n
 272:F:/GitHub Projects/FH Luzern/BAT/BAT/Libraries/XMCLib/inc\xmc_gpio.h ****  *
 273:F:/GitHub Projects/FH Luzern/BAT/BAT/Libraries/XMCLib/inc\xmc_gpio.h ****  * \par<b>Related APIs:</b><BR>>
 274:F:/GitHub Projects/FH Luzern/BAT/BAT/Libraries/XMCLib/inc\xmc_gpio.h ****  * XMC_GPIO_SetOutputHigh()
 275:F:/GitHub Projects/FH Luzern/BAT/BAT/Libraries/XMCLib/inc\xmc_gpio.h ****  *
 276:F:/GitHub Projects/FH Luzern/BAT/BAT/Libraries/XMCLib/inc\xmc_gpio.h ****  *\par<b>Note:</b><br>
 277:F:/GitHub Projects/FH Luzern/BAT/BAT/Libraries/XMCLib/inc\xmc_gpio.h ****  * Prior to this api, user has to configure port pin to output mode using XMC_GPIO_SetMode().
 278:F:/GitHub Projects/FH Luzern/BAT/BAT/Libraries/XMCLib/inc\xmc_gpio.h ****  * Register Pn_OMR is virtual and does not contain any flip-flop. A read action delivers the value 
 279:F:/GitHub Projects/FH Luzern/BAT/BAT/Libraries/XMCLib/inc\xmc_gpio.h ****  *
 280:F:/GitHub Projects/FH Luzern/BAT/BAT/Libraries/XMCLib/inc\xmc_gpio.h ****  */
 281:F:/GitHub Projects/FH Luzern/BAT/BAT/Libraries/XMCLib/inc\xmc_gpio.h **** 
 282:F:/GitHub Projects/FH Luzern/BAT/BAT/Libraries/XMCLib/inc\xmc_gpio.h **** __STATIC_INLINE void XMC_GPIO_SetOutputLow(XMC_GPIO_PORT_t *const port, const uint8_t pin)
 283:F:/GitHub Projects/FH Luzern/BAT/BAT/Libraries/XMCLib/inc\xmc_gpio.h **** {
  74              	 .loc 1 283 0
  75              	 .cfi_startproc
  76              	 
  77              	 
  78              	 
  79 0000 80B4     	 push {r7}
  80              	.LCFI6:
  81              	 .cfi_def_cfa_offset 4
  82              	 .cfi_offset 7,-4
  83 0002 83B0     	 sub sp,sp,#12
  84              	.LCFI7:
  85              	 .cfi_def_cfa_offset 16
  86 0004 00AF     	 add r7,sp,#0
  87              	.LCFI8:
  88              	 .cfi_def_cfa_register 7
  89 0006 7860     	 str r0,[r7,#4]
  90 0008 0B46     	 mov r3,r1
  91 000a FB70     	 strb r3,[r7,#3]
 284:F:/GitHub Projects/FH Luzern/BAT/BAT/Libraries/XMCLib/inc\xmc_gpio.h ****   XMC_ASSERT("XMC_GPIO_SetOutputLow: Invalid port", XMC_GPIO_CHECK_OUTPUT_PORT(port));
 285:F:/GitHub Projects/FH Luzern/BAT/BAT/Libraries/XMCLib/inc\xmc_gpio.h **** 
 286:F:/GitHub Projects/FH Luzern/BAT/BAT/Libraries/XMCLib/inc\xmc_gpio.h ****   port->OMR = 0x10000U << pin;
  92              	 .loc 1 286 0
  93 000c FB78     	 ldrb r3,[r7,#3]
  94 000e 4FF48032 	 mov r2,#65536
  95 0012 9A40     	 lsls r2,r2,r3
  96 0014 7B68     	 ldr r3,[r7,#4]
  97 0016 5A60     	 str r2,[r3,#4]
 287:F:/GitHub Projects/FH Luzern/BAT/BAT/Libraries/XMCLib/inc\xmc_gpio.h **** }
  98              	 .loc 1 287 0
  99 0018 0C37     	 adds r7,r7,#12
 100              	.LCFI9:
 101              	 .cfi_def_cfa_offset 4
 102 001a BD46     	 mov sp,r7
 103              	.LCFI10:
 104              	 .cfi_def_cfa_register 13
 105              	 
 106 001c 5DF8047B 	 ldr r7,[sp],#4
 107              	.LCFI11:
 108              	 .cfi_restore 7
 109              	 .cfi_def_cfa_offset 0
 110 0020 7047     	 bx lr
 111              	 .cfi_endproc
 112              	.LFE171:
 114 0022 00BF     	 .section .text.XMC_GPIO_GetInput,"ax",%progbits
 115              	 .align 2
 116              	 .thumb
 117              	 .thumb_func
 119              	XMC_GPIO_GetInput:
 120              	.LFB173:
 288:F:/GitHub Projects/FH Luzern/BAT/BAT/Libraries/XMCLib/inc\xmc_gpio.h **** 
 289:F:/GitHub Projects/FH Luzern/BAT/BAT/Libraries/XMCLib/inc\xmc_gpio.h **** /**
 290:F:/GitHub Projects/FH Luzern/BAT/BAT/Libraries/XMCLib/inc\xmc_gpio.h ****  *
 291:F:/GitHub Projects/FH Luzern/BAT/BAT/Libraries/XMCLib/inc\xmc_gpio.h ****  * @param port constant pointer pointing to GPIO port, to access hardware register Pn_OMR.
 292:F:/GitHub Projects/FH Luzern/BAT/BAT/Libraries/XMCLib/inc\xmc_gpio.h ****  * @param pin  port pin number.
 293:F:/GitHub Projects/FH Luzern/BAT/BAT/Libraries/XMCLib/inc\xmc_gpio.h ****  *
 294:F:/GitHub Projects/FH Luzern/BAT/BAT/Libraries/XMCLib/inc\xmc_gpio.h ****  * @return None
 295:F:/GitHub Projects/FH Luzern/BAT/BAT/Libraries/XMCLib/inc\xmc_gpio.h ****  *
 296:F:/GitHub Projects/FH Luzern/BAT/BAT/Libraries/XMCLib/inc\xmc_gpio.h ****  * \par<b>Description:</b><br>
 297:F:/GitHub Projects/FH Luzern/BAT/BAT/Libraries/XMCLib/inc\xmc_gpio.h ****  * Configures port pin output to Toggle. It configures hardware registers Pn_OMR.
 298:F:/GitHub Projects/FH Luzern/BAT/BAT/Libraries/XMCLib/inc\xmc_gpio.h ****  *
 299:F:/GitHub Projects/FH Luzern/BAT/BAT/Libraries/XMCLib/inc\xmc_gpio.h ****  * \par<b>Related APIs:</b><BR>
 300:F:/GitHub Projects/FH Luzern/BAT/BAT/Libraries/XMCLib/inc\xmc_gpio.h ****  * XMC_GPIO_SetOutputHigh(), XMC_GPIO_SetOutputLow().
 301:F:/GitHub Projects/FH Luzern/BAT/BAT/Libraries/XMCLib/inc\xmc_gpio.h ****  *
 302:F:/GitHub Projects/FH Luzern/BAT/BAT/Libraries/XMCLib/inc\xmc_gpio.h ****  * \par<b>Note:</b><br>
 303:F:/GitHub Projects/FH Luzern/BAT/BAT/Libraries/XMCLib/inc\xmc_gpio.h ****  * Prior to this api, user has to configure port pin to output mode using XMC_GPIO_SetMode(). Regis
 304:F:/GitHub Projects/FH Luzern/BAT/BAT/Libraries/XMCLib/inc\xmc_gpio.h ****  * and does not contain any flip-flop. A read action delivers the value of 0.
 305:F:/GitHub Projects/FH Luzern/BAT/BAT/Libraries/XMCLib/inc\xmc_gpio.h ****  *
 306:F:/GitHub Projects/FH Luzern/BAT/BAT/Libraries/XMCLib/inc\xmc_gpio.h ****  */
 307:F:/GitHub Projects/FH Luzern/BAT/BAT/Libraries/XMCLib/inc\xmc_gpio.h **** 
 308:F:/GitHub Projects/FH Luzern/BAT/BAT/Libraries/XMCLib/inc\xmc_gpio.h **** __STATIC_INLINE void XMC_GPIO_ToggleOutput(XMC_GPIO_PORT_t *const port, const uint8_t pin)
 309:F:/GitHub Projects/FH Luzern/BAT/BAT/Libraries/XMCLib/inc\xmc_gpio.h **** {
 310:F:/GitHub Projects/FH Luzern/BAT/BAT/Libraries/XMCLib/inc\xmc_gpio.h ****   XMC_ASSERT("XMC_GPIO_ToggleOutput: Invalid port", XMC_GPIO_CHECK_OUTPUT_PORT(port));
 311:F:/GitHub Projects/FH Luzern/BAT/BAT/Libraries/XMCLib/inc\xmc_gpio.h **** 
 312:F:/GitHub Projects/FH Luzern/BAT/BAT/Libraries/XMCLib/inc\xmc_gpio.h ****   port->OMR = 0x10001U << pin;
 313:F:/GitHub Projects/FH Luzern/BAT/BAT/Libraries/XMCLib/inc\xmc_gpio.h **** }
 314:F:/GitHub Projects/FH Luzern/BAT/BAT/Libraries/XMCLib/inc\xmc_gpio.h **** 
 315:F:/GitHub Projects/FH Luzern/BAT/BAT/Libraries/XMCLib/inc\xmc_gpio.h **** /**
 316:F:/GitHub Projects/FH Luzern/BAT/BAT/Libraries/XMCLib/inc\xmc_gpio.h ****  *
 317:F:/GitHub Projects/FH Luzern/BAT/BAT/Libraries/XMCLib/inc\xmc_gpio.h ****  * @param port constant pointer pointing to GPIO port, to access hardware register Pn_IN.
 318:F:/GitHub Projects/FH Luzern/BAT/BAT/Libraries/XMCLib/inc\xmc_gpio.h ****  * @param pin  Port pin number.
 319:F:/GitHub Projects/FH Luzern/BAT/BAT/Libraries/XMCLib/inc\xmc_gpio.h ****  *
 320:F:/GitHub Projects/FH Luzern/BAT/BAT/Libraries/XMCLib/inc\xmc_gpio.h ****  * @return uint32_t pin logic level status.
 321:F:/GitHub Projects/FH Luzern/BAT/BAT/Libraries/XMCLib/inc\xmc_gpio.h ****  *
 322:F:/GitHub Projects/FH Luzern/BAT/BAT/Libraries/XMCLib/inc\xmc_gpio.h ****  *\par<b>Description:</b><br>
 323:F:/GitHub Projects/FH Luzern/BAT/BAT/Libraries/XMCLib/inc\xmc_gpio.h ****  * Reads the Pn_IN register and returns the current logical value at the GPIO pin.
 324:F:/GitHub Projects/FH Luzern/BAT/BAT/Libraries/XMCLib/inc\xmc_gpio.h ****  *
 325:F:/GitHub Projects/FH Luzern/BAT/BAT/Libraries/XMCLib/inc\xmc_gpio.h ****  * \par<b>Related APIs:</b><BR>
 326:F:/GitHub Projects/FH Luzern/BAT/BAT/Libraries/XMCLib/inc\xmc_gpio.h ****  * None
 327:F:/GitHub Projects/FH Luzern/BAT/BAT/Libraries/XMCLib/inc\xmc_gpio.h ****  *
 328:F:/GitHub Projects/FH Luzern/BAT/BAT/Libraries/XMCLib/inc\xmc_gpio.h ****  * \par<b>Note:</b><br>
 329:F:/GitHub Projects/FH Luzern/BAT/BAT/Libraries/XMCLib/inc\xmc_gpio.h ****  * Prior to this api, user has to configure port pin to input mode using XMC_GPIO_SetMode().
 330:F:/GitHub Projects/FH Luzern/BAT/BAT/Libraries/XMCLib/inc\xmc_gpio.h ****  *
 331:F:/GitHub Projects/FH Luzern/BAT/BAT/Libraries/XMCLib/inc\xmc_gpio.h ****  */
 332:F:/GitHub Projects/FH Luzern/BAT/BAT/Libraries/XMCLib/inc\xmc_gpio.h **** 
 333:F:/GitHub Projects/FH Luzern/BAT/BAT/Libraries/XMCLib/inc\xmc_gpio.h **** __STATIC_INLINE uint32_t XMC_GPIO_GetInput(XMC_GPIO_PORT_t *const port, const uint8_t pin)
 334:F:/GitHub Projects/FH Luzern/BAT/BAT/Libraries/XMCLib/inc\xmc_gpio.h **** {
 121              	 .loc 1 334 0
 122              	 .cfi_startproc
 123              	 
 124              	 
 125              	 
 126 0000 80B4     	 push {r7}
 127              	.LCFI12:
 128              	 .cfi_def_cfa_offset 4
 129              	 .cfi_offset 7,-4
 130 0002 83B0     	 sub sp,sp,#12
 131              	.LCFI13:
 132              	 .cfi_def_cfa_offset 16
 133 0004 00AF     	 add r7,sp,#0
 134              	.LCFI14:
 135              	 .cfi_def_cfa_register 7
 136 0006 7860     	 str r0,[r7,#4]
 137 0008 0B46     	 mov r3,r1
 138 000a FB70     	 strb r3,[r7,#3]
 335:F:/GitHub Projects/FH Luzern/BAT/BAT/Libraries/XMCLib/inc\xmc_gpio.h ****   XMC_ASSERT("XMC_GPIO_GetInput: Invalid port", XMC_GPIO_CHECK_PORT(port));
 336:F:/GitHub Projects/FH Luzern/BAT/BAT/Libraries/XMCLib/inc\xmc_gpio.h **** 
 337:F:/GitHub Projects/FH Luzern/BAT/BAT/Libraries/XMCLib/inc\xmc_gpio.h ****   return (((port->IN) >> pin) & 0x1U);
 139              	 .loc 1 337 0
 140 000c 7B68     	 ldr r3,[r7,#4]
 141 000e 5A6A     	 ldr r2,[r3,#36]
 142 0010 FB78     	 ldrb r3,[r7,#3]
 143 0012 22FA03F3 	 lsr r3,r2,r3
 144 0016 03F00103 	 and r3,r3,#1
 338:F:/GitHub Projects/FH Luzern/BAT/BAT/Libraries/XMCLib/inc\xmc_gpio.h **** }
 145              	 .loc 1 338 0
 146 001a 1846     	 mov r0,r3
 147 001c 0C37     	 adds r7,r7,#12
 148              	.LCFI15:
 149              	 .cfi_def_cfa_offset 4
 150 001e BD46     	 mov sp,r7
 151              	.LCFI16:
 152              	 .cfi_def_cfa_register 13
 153              	 
 154 0020 5DF8047B 	 ldr r7,[sp],#4
 155              	.LCFI17:
 156              	 .cfi_restore 7
 157              	 .cfi_def_cfa_offset 0
 158 0024 7047     	 bx lr
 159              	 .cfi_endproc
 160              	.LFE173:
 162 0026 00BF     	 .section .text.DIGITAL_IO_SetOutputHigh,"ax",%progbits
 163              	 .align 2
 164              	 .thumb
 165              	 .thumb_func
 167              	DIGITAL_IO_SetOutputHigh:
 168              	.LFB239:
 169              	 .file 2 "F:/GitHub Projects/FH Luzern/BAT/BAT/Dave/Generated/DIGITAL_IO/digital_io.h"
   1:F:/GitHub Projects/FH Luzern/BAT/BAT/Dave/Generated/DIGITAL_IO\digital_io.h **** /*
   2:F:/GitHub Projects/FH Luzern/BAT/BAT/Dave/Generated/DIGITAL_IO\digital_io.h ****  *
   3:F:/GitHub Projects/FH Luzern/BAT/BAT/Dave/Generated/DIGITAL_IO\digital_io.h ****  * @file digital_io.h
   4:F:/GitHub Projects/FH Luzern/BAT/BAT/Dave/Generated/DIGITAL_IO\digital_io.h ****  * @date 2016-07-08
   5:F:/GitHub Projects/FH Luzern/BAT/BAT/Dave/Generated/DIGITAL_IO\digital_io.h ****  *
   6:F:/GitHub Projects/FH Luzern/BAT/BAT/Dave/Generated/DIGITAL_IO\digital_io.h ****  * NOTE:
   7:F:/GitHub Projects/FH Luzern/BAT/BAT/Dave/Generated/DIGITAL_IO\digital_io.h ****  * This file is generated by DAVE. Any manual modification done to this file will be lost when the 
   8:F:/GitHub Projects/FH Luzern/BAT/BAT/Dave/Generated/DIGITAL_IO\digital_io.h ****  *
   9:F:/GitHub Projects/FH Luzern/BAT/BAT/Dave/Generated/DIGITAL_IO\digital_io.h ****  * @cond
  10:F:/GitHub Projects/FH Luzern/BAT/BAT/Dave/Generated/DIGITAL_IO\digital_io.h ****  **************************************************************************************************
  11:F:/GitHub Projects/FH Luzern/BAT/BAT/Dave/Generated/DIGITAL_IO\digital_io.h ****  * DIGITAL_IO v4.0.16 - The DIGITAL_IO APP is used to configure a port pin as digital Input/Output.
  12:F:/GitHub Projects/FH Luzern/BAT/BAT/Dave/Generated/DIGITAL_IO\digital_io.h ****  *
  13:F:/GitHub Projects/FH Luzern/BAT/BAT/Dave/Generated/DIGITAL_IO\digital_io.h ****  * Copyright (c) 2015-2016, Infineon Technologies AG
  14:F:/GitHub Projects/FH Luzern/BAT/BAT/Dave/Generated/DIGITAL_IO\digital_io.h ****  * All rights reserved.
  15:F:/GitHub Projects/FH Luzern/BAT/BAT/Dave/Generated/DIGITAL_IO\digital_io.h ****  *
  16:F:/GitHub Projects/FH Luzern/BAT/BAT/Dave/Generated/DIGITAL_IO\digital_io.h ****  * Redistribution and use in source and binary forms, with or without modification,are permitted pr
  17:F:/GitHub Projects/FH Luzern/BAT/BAT/Dave/Generated/DIGITAL_IO\digital_io.h ****  * following conditions are met:
  18:F:/GitHub Projects/FH Luzern/BAT/BAT/Dave/Generated/DIGITAL_IO\digital_io.h ****  *
  19:F:/GitHub Projects/FH Luzern/BAT/BAT/Dave/Generated/DIGITAL_IO\digital_io.h ****  *   Redistributions of source code must retain the above copyright notice, this list of conditions
  20:F:/GitHub Projects/FH Luzern/BAT/BAT/Dave/Generated/DIGITAL_IO\digital_io.h ****  *   disclaimer.
  21:F:/GitHub Projects/FH Luzern/BAT/BAT/Dave/Generated/DIGITAL_IO\digital_io.h ****  *
  22:F:/GitHub Projects/FH Luzern/BAT/BAT/Dave/Generated/DIGITAL_IO\digital_io.h ****  *   Redistributions in binary form must reproduce the above copyright notice, this list of conditi
  23:F:/GitHub Projects/FH Luzern/BAT/BAT/Dave/Generated/DIGITAL_IO\digital_io.h ****  *   following disclaimer in the documentation and/or other materials provided with the distributio
  24:F:/GitHub Projects/FH Luzern/BAT/BAT/Dave/Generated/DIGITAL_IO\digital_io.h ****  *
  25:F:/GitHub Projects/FH Luzern/BAT/BAT/Dave/Generated/DIGITAL_IO\digital_io.h ****  *   Neither the name of the copyright holders nor the names of its contributors may be used to end
  26:F:/GitHub Projects/FH Luzern/BAT/BAT/Dave/Generated/DIGITAL_IO\digital_io.h ****  *   products derived from this software without specific prior written permission.
  27:F:/GitHub Projects/FH Luzern/BAT/BAT/Dave/Generated/DIGITAL_IO\digital_io.h ****  *
  28:F:/GitHub Projects/FH Luzern/BAT/BAT/Dave/Generated/DIGITAL_IO\digital_io.h ****  * THIS SOFTWARE IS PROVIDED BY THE COPYRIGHT HOLDERS AND CONTRIBUTORS "AS IS" AND ANY EXPRESS OR I
  29:F:/GitHub Projects/FH Luzern/BAT/BAT/Dave/Generated/DIGITAL_IO\digital_io.h ****  * INCLUDING, BUT NOT LIMITED TO, THE IMPLIED WARRANTIES OF MERCHANTABILITY AND FITNESS FOR A PARTI
  30:F:/GitHub Projects/FH Luzern/BAT/BAT/Dave/Generated/DIGITAL_IO\digital_io.h ****  * DISCLAIMED. IN NO EVENT SHALL THE COPYRIGHT HOLDER OR CONTRIBUTORS BE LIABLE  FOR ANY DIRECT, IN
  31:F:/GitHub Projects/FH Luzern/BAT/BAT/Dave/Generated/DIGITAL_IO\digital_io.h ****  * SPECIAL, EXEMPLARY, OR CONSEQUENTIAL DAMAGES (INCLUDING, BUT NOT LIMITED TO, PROCUREMENT OF SUBS
  32:F:/GitHub Projects/FH Luzern/BAT/BAT/Dave/Generated/DIGITAL_IO\digital_io.h ****  * SERVICES; LOSS OF USE, DATA, OR PROFITS; OR BUSINESS INTERRUPTION) HOWEVER CAUSED AND ON ANY THE
  33:F:/GitHub Projects/FH Luzern/BAT/BAT/Dave/Generated/DIGITAL_IO\digital_io.h ****  * WHETHER IN CONTRACT, STRICT LIABILITY,OR TORT (INCLUDING NEGLIGENCE OR OTHERWISE) ARISING IN ANY
  34:F:/GitHub Projects/FH Luzern/BAT/BAT/Dave/Generated/DIGITAL_IO\digital_io.h ****  * USE OF THIS SOFTWARE, EVEN IF ADVISED OF THE POSSIBILITY OF SUCH DAMAGE.
  35:F:/GitHub Projects/FH Luzern/BAT/BAT/Dave/Generated/DIGITAL_IO\digital_io.h ****  *
  36:F:/GitHub Projects/FH Luzern/BAT/BAT/Dave/Generated/DIGITAL_IO\digital_io.h ****  * To improve the quality of the software, users are encouraged to share modifications, enhancement
  37:F:/GitHub Projects/FH Luzern/BAT/BAT/Dave/Generated/DIGITAL_IO\digital_io.h ****  * with Infineon Technologies AG (dave@infineon.com).
  38:F:/GitHub Projects/FH Luzern/BAT/BAT/Dave/Generated/DIGITAL_IO\digital_io.h ****  **************************************************************************************************
  39:F:/GitHub Projects/FH Luzern/BAT/BAT/Dave/Generated/DIGITAL_IO\digital_io.h ****  *
  40:F:/GitHub Projects/FH Luzern/BAT/BAT/Dave/Generated/DIGITAL_IO\digital_io.h ****  * Change History
  41:F:/GitHub Projects/FH Luzern/BAT/BAT/Dave/Generated/DIGITAL_IO\digital_io.h ****  * --------------
  42:F:/GitHub Projects/FH Luzern/BAT/BAT/Dave/Generated/DIGITAL_IO\digital_io.h ****  *
  43:F:/GitHub Projects/FH Luzern/BAT/BAT/Dave/Generated/DIGITAL_IO\digital_io.h ****  * 2015-02-16
  44:F:/GitHub Projects/FH Luzern/BAT/BAT/Dave/Generated/DIGITAL_IO\digital_io.h ****  *     - Initial version
  45:F:/GitHub Projects/FH Luzern/BAT/BAT/Dave/Generated/DIGITAL_IO\digital_io.h ****  *
  46:F:/GitHub Projects/FH Luzern/BAT/BAT/Dave/Generated/DIGITAL_IO\digital_io.h ****  * 2015-04-22
  47:F:/GitHub Projects/FH Luzern/BAT/BAT/Dave/Generated/DIGITAL_IO\digital_io.h ****  *     - XMC_ASSERT is added in static inline functions.<br>
  48:F:/GitHub Projects/FH Luzern/BAT/BAT/Dave/Generated/DIGITAL_IO\digital_io.h ****  *
  49:F:/GitHub Projects/FH Luzern/BAT/BAT/Dave/Generated/DIGITAL_IO\digital_io.h ****  * 2015-06-20
  50:F:/GitHub Projects/FH Luzern/BAT/BAT/Dave/Generated/DIGITAL_IO\digital_io.h ****  *     - Version check added for XMCLib dependency.<br>
  51:F:/GitHub Projects/FH Luzern/BAT/BAT/Dave/Generated/DIGITAL_IO\digital_io.h ****  *
  52:F:/GitHub Projects/FH Luzern/BAT/BAT/Dave/Generated/DIGITAL_IO\digital_io.h ****  * 2015-12-22
  53:F:/GitHub Projects/FH Luzern/BAT/BAT/Dave/Generated/DIGITAL_IO\digital_io.h ****  *     - Added hardware controlled IO feature.
  54:F:/GitHub Projects/FH Luzern/BAT/BAT/Dave/Generated/DIGITAL_IO\digital_io.h ****  * 2016-07-08:
  55:F:/GitHub Projects/FH Luzern/BAT/BAT/Dave/Generated/DIGITAL_IO\digital_io.h ****  *     - Fixed incorrect case for an included header.<br>
  56:F:/GitHub Projects/FH Luzern/BAT/BAT/Dave/Generated/DIGITAL_IO\digital_io.h ****  *
  57:F:/GitHub Projects/FH Luzern/BAT/BAT/Dave/Generated/DIGITAL_IO\digital_io.h ****  * @endcond
  58:F:/GitHub Projects/FH Luzern/BAT/BAT/Dave/Generated/DIGITAL_IO\digital_io.h ****  *
  59:F:/GitHub Projects/FH Luzern/BAT/BAT/Dave/Generated/DIGITAL_IO\digital_io.h ****  */
  60:F:/GitHub Projects/FH Luzern/BAT/BAT/Dave/Generated/DIGITAL_IO\digital_io.h **** 
  61:F:/GitHub Projects/FH Luzern/BAT/BAT/Dave/Generated/DIGITAL_IO\digital_io.h **** /**************************************************************************************************
  62:F:/GitHub Projects/FH Luzern/BAT/BAT/Dave/Generated/DIGITAL_IO\digital_io.h ****  * HEADER FILES
  63:F:/GitHub Projects/FH Luzern/BAT/BAT/Dave/Generated/DIGITAL_IO\digital_io.h ****  **************************************************************************************************
  64:F:/GitHub Projects/FH Luzern/BAT/BAT/Dave/Generated/DIGITAL_IO\digital_io.h **** 
  65:F:/GitHub Projects/FH Luzern/BAT/BAT/Dave/Generated/DIGITAL_IO\digital_io.h **** #ifndef DIGITAL_IO_H
  66:F:/GitHub Projects/FH Luzern/BAT/BAT/Dave/Generated/DIGITAL_IO\digital_io.h **** #define DIGITAL_IO_H
  67:F:/GitHub Projects/FH Luzern/BAT/BAT/Dave/Generated/DIGITAL_IO\digital_io.h **** 
  68:F:/GitHub Projects/FH Luzern/BAT/BAT/Dave/Generated/DIGITAL_IO\digital_io.h **** #include <xmc_gpio.h>
  69:F:/GitHub Projects/FH Luzern/BAT/BAT/Dave/Generated/DIGITAL_IO\digital_io.h **** #include <DAVE_Common.h>
  70:F:/GitHub Projects/FH Luzern/BAT/BAT/Dave/Generated/DIGITAL_IO\digital_io.h **** #include "digital_io_conf.h"
  71:F:/GitHub Projects/FH Luzern/BAT/BAT/Dave/Generated/DIGITAL_IO\digital_io.h **** 
  72:F:/GitHub Projects/FH Luzern/BAT/BAT/Dave/Generated/DIGITAL_IO\digital_io.h **** /**************************************************************************************************
  73:F:/GitHub Projects/FH Luzern/BAT/BAT/Dave/Generated/DIGITAL_IO\digital_io.h ****  * MACROS
  74:F:/GitHub Projects/FH Luzern/BAT/BAT/Dave/Generated/DIGITAL_IO\digital_io.h ****  **************************************************************************************************
  75:F:/GitHub Projects/FH Luzern/BAT/BAT/Dave/Generated/DIGITAL_IO\digital_io.h **** #if (!((XMC_LIB_MAJOR_VERSION == 2U) && \
  76:F:/GitHub Projects/FH Luzern/BAT/BAT/Dave/Generated/DIGITAL_IO\digital_io.h ****        (XMC_LIB_MINOR_VERSION >= 0U) && \
  77:F:/GitHub Projects/FH Luzern/BAT/BAT/Dave/Generated/DIGITAL_IO\digital_io.h ****        (XMC_LIB_PATCH_VERSION >= 0U)))
  78:F:/GitHub Projects/FH Luzern/BAT/BAT/Dave/Generated/DIGITAL_IO\digital_io.h **** #error "DIGITAL_IO requires XMC Peripheral Library v2.0.0 or higher"
  79:F:/GitHub Projects/FH Luzern/BAT/BAT/Dave/Generated/DIGITAL_IO\digital_io.h **** #endif
  80:F:/GitHub Projects/FH Luzern/BAT/BAT/Dave/Generated/DIGITAL_IO\digital_io.h **** 
  81:F:/GitHub Projects/FH Luzern/BAT/BAT/Dave/Generated/DIGITAL_IO\digital_io.h ****  /*************************************************************************************************
  82:F:/GitHub Projects/FH Luzern/BAT/BAT/Dave/Generated/DIGITAL_IO\digital_io.h ****  * ENUMS
  83:F:/GitHub Projects/FH Luzern/BAT/BAT/Dave/Generated/DIGITAL_IO\digital_io.h ****  **************************************************************************************************
  84:F:/GitHub Projects/FH Luzern/BAT/BAT/Dave/Generated/DIGITAL_IO\digital_io.h **** 
  85:F:/GitHub Projects/FH Luzern/BAT/BAT/Dave/Generated/DIGITAL_IO\digital_io.h **** /**
  86:F:/GitHub Projects/FH Luzern/BAT/BAT/Dave/Generated/DIGITAL_IO\digital_io.h **** * @ingroup DIGITAL_IO_enumerations
  87:F:/GitHub Projects/FH Luzern/BAT/BAT/Dave/Generated/DIGITAL_IO\digital_io.h **** * @{
  88:F:/GitHub Projects/FH Luzern/BAT/BAT/Dave/Generated/DIGITAL_IO\digital_io.h **** */
  89:F:/GitHub Projects/FH Luzern/BAT/BAT/Dave/Generated/DIGITAL_IO\digital_io.h **** 
  90:F:/GitHub Projects/FH Luzern/BAT/BAT/Dave/Generated/DIGITAL_IO\digital_io.h **** /**
  91:F:/GitHub Projects/FH Luzern/BAT/BAT/Dave/Generated/DIGITAL_IO\digital_io.h **** * @brief Initialization status of DIGITAL_IO APP.
  92:F:/GitHub Projects/FH Luzern/BAT/BAT/Dave/Generated/DIGITAL_IO\digital_io.h **** */
  93:F:/GitHub Projects/FH Luzern/BAT/BAT/Dave/Generated/DIGITAL_IO\digital_io.h **** typedef enum DIGITAL_IO_STATUS
  94:F:/GitHub Projects/FH Luzern/BAT/BAT/Dave/Generated/DIGITAL_IO\digital_io.h **** {
  95:F:/GitHub Projects/FH Luzern/BAT/BAT/Dave/Generated/DIGITAL_IO\digital_io.h ****   DIGITAL_IO_STATUS_OK = 0U,/**< 0=Status OK */
  96:F:/GitHub Projects/FH Luzern/BAT/BAT/Dave/Generated/DIGITAL_IO\digital_io.h ****   DIGITAL_IO_STATUS_FAILURE = 1U/**< 1=Status Failed */
  97:F:/GitHub Projects/FH Luzern/BAT/BAT/Dave/Generated/DIGITAL_IO\digital_io.h **** } DIGITAL_IO_STATUS_t;
  98:F:/GitHub Projects/FH Luzern/BAT/BAT/Dave/Generated/DIGITAL_IO\digital_io.h **** 
  99:F:/GitHub Projects/FH Luzern/BAT/BAT/Dave/Generated/DIGITAL_IO\digital_io.h **** /**
 100:F:/GitHub Projects/FH Luzern/BAT/BAT/Dave/Generated/DIGITAL_IO\digital_io.h **** * @}
 101:F:/GitHub Projects/FH Luzern/BAT/BAT/Dave/Generated/DIGITAL_IO\digital_io.h **** */
 102:F:/GitHub Projects/FH Luzern/BAT/BAT/Dave/Generated/DIGITAL_IO\digital_io.h **** 
 103:F:/GitHub Projects/FH Luzern/BAT/BAT/Dave/Generated/DIGITAL_IO\digital_io.h **** /**************************************************************************************************
 104:F:/GitHub Projects/FH Luzern/BAT/BAT/Dave/Generated/DIGITAL_IO\digital_io.h ****  * DATA STRUCTURES
 105:F:/GitHub Projects/FH Luzern/BAT/BAT/Dave/Generated/DIGITAL_IO\digital_io.h ****  **************************************************************************************************
 106:F:/GitHub Projects/FH Luzern/BAT/BAT/Dave/Generated/DIGITAL_IO\digital_io.h **** /**
 107:F:/GitHub Projects/FH Luzern/BAT/BAT/Dave/Generated/DIGITAL_IO\digital_io.h **** * @ingroup DIGITAL_IO_datastructures
 108:F:/GitHub Projects/FH Luzern/BAT/BAT/Dave/Generated/DIGITAL_IO\digital_io.h **** * @{
 109:F:/GitHub Projects/FH Luzern/BAT/BAT/Dave/Generated/DIGITAL_IO\digital_io.h **** */
 110:F:/GitHub Projects/FH Luzern/BAT/BAT/Dave/Generated/DIGITAL_IO\digital_io.h **** 
 111:F:/GitHub Projects/FH Luzern/BAT/BAT/Dave/Generated/DIGITAL_IO\digital_io.h **** /**
 112:F:/GitHub Projects/FH Luzern/BAT/BAT/Dave/Generated/DIGITAL_IO\digital_io.h **** * @brief Initialization data structure of DIGITAL_IO APP
 113:F:/GitHub Projects/FH Luzern/BAT/BAT/Dave/Generated/DIGITAL_IO\digital_io.h **** */
 114:F:/GitHub Projects/FH Luzern/BAT/BAT/Dave/Generated/DIGITAL_IO\digital_io.h **** typedef struct DIGITAL_IO
 115:F:/GitHub Projects/FH Luzern/BAT/BAT/Dave/Generated/DIGITAL_IO\digital_io.h **** {
 116:F:/GitHub Projects/FH Luzern/BAT/BAT/Dave/Generated/DIGITAL_IO\digital_io.h ****   XMC_GPIO_PORT_t *const gpio_port;             /**< port number */
 117:F:/GitHub Projects/FH Luzern/BAT/BAT/Dave/Generated/DIGITAL_IO\digital_io.h ****   const XMC_GPIO_CONFIG_t gpio_config;          /**< mode, initial output level and pad driver stre
 118:F:/GitHub Projects/FH Luzern/BAT/BAT/Dave/Generated/DIGITAL_IO\digital_io.h ****   const uint8_t gpio_pin;                       /**< pin number */
 119:F:/GitHub Projects/FH Luzern/BAT/BAT/Dave/Generated/DIGITAL_IO\digital_io.h ****   const XMC_GPIO_HWCTRL_t hwctrl;               /**< Hardware port control */
 120:F:/GitHub Projects/FH Luzern/BAT/BAT/Dave/Generated/DIGITAL_IO\digital_io.h **** } DIGITAL_IO_t;
 121:F:/GitHub Projects/FH Luzern/BAT/BAT/Dave/Generated/DIGITAL_IO\digital_io.h **** 
 122:F:/GitHub Projects/FH Luzern/BAT/BAT/Dave/Generated/DIGITAL_IO\digital_io.h **** 
 123:F:/GitHub Projects/FH Luzern/BAT/BAT/Dave/Generated/DIGITAL_IO\digital_io.h **** /**
 124:F:/GitHub Projects/FH Luzern/BAT/BAT/Dave/Generated/DIGITAL_IO\digital_io.h **** * @}
 125:F:/GitHub Projects/FH Luzern/BAT/BAT/Dave/Generated/DIGITAL_IO\digital_io.h **** */
 126:F:/GitHub Projects/FH Luzern/BAT/BAT/Dave/Generated/DIGITAL_IO\digital_io.h **** 
 127:F:/GitHub Projects/FH Luzern/BAT/BAT/Dave/Generated/DIGITAL_IO\digital_io.h **** 
 128:F:/GitHub Projects/FH Luzern/BAT/BAT/Dave/Generated/DIGITAL_IO\digital_io.h **** /**************************************************************************************************
 129:F:/GitHub Projects/FH Luzern/BAT/BAT/Dave/Generated/DIGITAL_IO\digital_io.h ****  * API Prototypes
 130:F:/GitHub Projects/FH Luzern/BAT/BAT/Dave/Generated/DIGITAL_IO\digital_io.h ****  **************************************************************************************************
 131:F:/GitHub Projects/FH Luzern/BAT/BAT/Dave/Generated/DIGITAL_IO\digital_io.h **** 
 132:F:/GitHub Projects/FH Luzern/BAT/BAT/Dave/Generated/DIGITAL_IO\digital_io.h **** 
 133:F:/GitHub Projects/FH Luzern/BAT/BAT/Dave/Generated/DIGITAL_IO\digital_io.h **** #ifdef __cplusplus
 134:F:/GitHub Projects/FH Luzern/BAT/BAT/Dave/Generated/DIGITAL_IO\digital_io.h **** extern "C" {
 135:F:/GitHub Projects/FH Luzern/BAT/BAT/Dave/Generated/DIGITAL_IO\digital_io.h **** #endif
 136:F:/GitHub Projects/FH Luzern/BAT/BAT/Dave/Generated/DIGITAL_IO\digital_io.h **** 
 137:F:/GitHub Projects/FH Luzern/BAT/BAT/Dave/Generated/DIGITAL_IO\digital_io.h **** /**
 138:F:/GitHub Projects/FH Luzern/BAT/BAT/Dave/Generated/DIGITAL_IO\digital_io.h **** * @ingroup DIGITAL_IO_apidoc
 139:F:/GitHub Projects/FH Luzern/BAT/BAT/Dave/Generated/DIGITAL_IO\digital_io.h **** * @{
 140:F:/GitHub Projects/FH Luzern/BAT/BAT/Dave/Generated/DIGITAL_IO\digital_io.h **** */
 141:F:/GitHub Projects/FH Luzern/BAT/BAT/Dave/Generated/DIGITAL_IO\digital_io.h **** 
 142:F:/GitHub Projects/FH Luzern/BAT/BAT/Dave/Generated/DIGITAL_IO\digital_io.h **** 
 143:F:/GitHub Projects/FH Luzern/BAT/BAT/Dave/Generated/DIGITAL_IO\digital_io.h **** 
 144:F:/GitHub Projects/FH Luzern/BAT/BAT/Dave/Generated/DIGITAL_IO\digital_io.h **** /**
 145:F:/GitHub Projects/FH Luzern/BAT/BAT/Dave/Generated/DIGITAL_IO\digital_io.h **** * @brief Get DIGITAL_IO APP version
 146:F:/GitHub Projects/FH Luzern/BAT/BAT/Dave/Generated/DIGITAL_IO\digital_io.h **** * @return DAVE_APP_VERSION_t APP version information (major, minor and patch number)
 147:F:/GitHub Projects/FH Luzern/BAT/BAT/Dave/Generated/DIGITAL_IO\digital_io.h **** *
 148:F:/GitHub Projects/FH Luzern/BAT/BAT/Dave/Generated/DIGITAL_IO\digital_io.h **** * \par<b>Description: </b><br>
 149:F:/GitHub Projects/FH Luzern/BAT/BAT/Dave/Generated/DIGITAL_IO\digital_io.h **** * The function can be used to check application software compatibility with a
 150:F:/GitHub Projects/FH Luzern/BAT/BAT/Dave/Generated/DIGITAL_IO\digital_io.h **** * specific version of the APP.
 151:F:/GitHub Projects/FH Luzern/BAT/BAT/Dave/Generated/DIGITAL_IO\digital_io.h **** *
 152:F:/GitHub Projects/FH Luzern/BAT/BAT/Dave/Generated/DIGITAL_IO\digital_io.h **** * Example Usage:
 153:F:/GitHub Projects/FH Luzern/BAT/BAT/Dave/Generated/DIGITAL_IO\digital_io.h **** *
 154:F:/GitHub Projects/FH Luzern/BAT/BAT/Dave/Generated/DIGITAL_IO\digital_io.h **** * @code
 155:F:/GitHub Projects/FH Luzern/BAT/BAT/Dave/Generated/DIGITAL_IO\digital_io.h **** * #include <DAVE.h>
 156:F:/GitHub Projects/FH Luzern/BAT/BAT/Dave/Generated/DIGITAL_IO\digital_io.h **** *
 157:F:/GitHub Projects/FH Luzern/BAT/BAT/Dave/Generated/DIGITAL_IO\digital_io.h **** * int main(void)
 158:F:/GitHub Projects/FH Luzern/BAT/BAT/Dave/Generated/DIGITAL_IO\digital_io.h **** * {
 159:F:/GitHub Projects/FH Luzern/BAT/BAT/Dave/Generated/DIGITAL_IO\digital_io.h **** *   DAVE_STATUS_t init_status;
 160:F:/GitHub Projects/FH Luzern/BAT/BAT/Dave/Generated/DIGITAL_IO\digital_io.h **** *   DAVE_APP_VERSION_t version;
 161:F:/GitHub Projects/FH Luzern/BAT/BAT/Dave/Generated/DIGITAL_IO\digital_io.h **** *
 162:F:/GitHub Projects/FH Luzern/BAT/BAT/Dave/Generated/DIGITAL_IO\digital_io.h **** *   // Initialize DIGITAL_IO APP:
 163:F:/GitHub Projects/FH Luzern/BAT/BAT/Dave/Generated/DIGITAL_IO\digital_io.h **** *   // DIGITAL_IO_Init() is called from within DAVE_Init().
 164:F:/GitHub Projects/FH Luzern/BAT/BAT/Dave/Generated/DIGITAL_IO\digital_io.h **** *   init_status = DAVE_Init();
 165:F:/GitHub Projects/FH Luzern/BAT/BAT/Dave/Generated/DIGITAL_IO\digital_io.h **** *   if(init_status == DAVE_STATUS_SUCCESS)
 166:F:/GitHub Projects/FH Luzern/BAT/BAT/Dave/Generated/DIGITAL_IO\digital_io.h **** *   {
 167:F:/GitHub Projects/FH Luzern/BAT/BAT/Dave/Generated/DIGITAL_IO\digital_io.h **** *     version = DIGITAL_IO_GetAppVersion();
 168:F:/GitHub Projects/FH Luzern/BAT/BAT/Dave/Generated/DIGITAL_IO\digital_io.h **** *     if (version.major != 4U) {
 169:F:/GitHub Projects/FH Luzern/BAT/BAT/Dave/Generated/DIGITAL_IO\digital_io.h **** *     // Probably, not the right version.
 170:F:/GitHub Projects/FH Luzern/BAT/BAT/Dave/Generated/DIGITAL_IO\digital_io.h **** *     }
 171:F:/GitHub Projects/FH Luzern/BAT/BAT/Dave/Generated/DIGITAL_IO\digital_io.h **** *   }
 172:F:/GitHub Projects/FH Luzern/BAT/BAT/Dave/Generated/DIGITAL_IO\digital_io.h **** *
 173:F:/GitHub Projects/FH Luzern/BAT/BAT/Dave/Generated/DIGITAL_IO\digital_io.h **** *     // More code here
 174:F:/GitHub Projects/FH Luzern/BAT/BAT/Dave/Generated/DIGITAL_IO\digital_io.h **** *     while(1) {
 175:F:/GitHub Projects/FH Luzern/BAT/BAT/Dave/Generated/DIGITAL_IO\digital_io.h **** *
 176:F:/GitHub Projects/FH Luzern/BAT/BAT/Dave/Generated/DIGITAL_IO\digital_io.h **** *     }
 177:F:/GitHub Projects/FH Luzern/BAT/BAT/Dave/Generated/DIGITAL_IO\digital_io.h **** *     return (1);
 178:F:/GitHub Projects/FH Luzern/BAT/BAT/Dave/Generated/DIGITAL_IO\digital_io.h **** *  }
 179:F:/GitHub Projects/FH Luzern/BAT/BAT/Dave/Generated/DIGITAL_IO\digital_io.h **** * @endcode<BR>
 180:F:/GitHub Projects/FH Luzern/BAT/BAT/Dave/Generated/DIGITAL_IO\digital_io.h **** */
 181:F:/GitHub Projects/FH Luzern/BAT/BAT/Dave/Generated/DIGITAL_IO\digital_io.h **** 
 182:F:/GitHub Projects/FH Luzern/BAT/BAT/Dave/Generated/DIGITAL_IO\digital_io.h **** DAVE_APP_VERSION_t DIGITAL_IO_GetAppVersion(void);
 183:F:/GitHub Projects/FH Luzern/BAT/BAT/Dave/Generated/DIGITAL_IO\digital_io.h **** 
 184:F:/GitHub Projects/FH Luzern/BAT/BAT/Dave/Generated/DIGITAL_IO\digital_io.h **** /**
 185:F:/GitHub Projects/FH Luzern/BAT/BAT/Dave/Generated/DIGITAL_IO\digital_io.h **** *
 186:F:/GitHub Projects/FH Luzern/BAT/BAT/Dave/Generated/DIGITAL_IO\digital_io.h **** * @brief Function to initialize the port pin as per UI settings.
 187:F:/GitHub Projects/FH Luzern/BAT/BAT/Dave/Generated/DIGITAL_IO\digital_io.h **** * @param handler Pointer pointing to APP data structure. Refer @ref DIGITAL_IO_t for details.
 188:F:/GitHub Projects/FH Luzern/BAT/BAT/Dave/Generated/DIGITAL_IO\digital_io.h **** * @return DIGITAL_IO_STATUS_t DIGITAL_IO APP status. Refer @ref DIGITAL_IO_STATUS_t structure for d
 189:F:/GitHub Projects/FH Luzern/BAT/BAT/Dave/Generated/DIGITAL_IO\digital_io.h **** *
 190:F:/GitHub Projects/FH Luzern/BAT/BAT/Dave/Generated/DIGITAL_IO\digital_io.h **** * \par<b>Description:</b><br>
 191:F:/GitHub Projects/FH Luzern/BAT/BAT/Dave/Generated/DIGITAL_IO\digital_io.h **** * This function initializes GPIO port registers IOCR,PDISC,OMR,PDR/PHCR to configure pin direction,
 192:F:/GitHub Projects/FH Luzern/BAT/BAT/Dave/Generated/DIGITAL_IO\digital_io.h **** * and pad driver strength/hysteresis.
 193:F:/GitHub Projects/FH Luzern/BAT/BAT/Dave/Generated/DIGITAL_IO\digital_io.h **** *
 194:F:/GitHub Projects/FH Luzern/BAT/BAT/Dave/Generated/DIGITAL_IO\digital_io.h **** * \par<b>Related APIs:</b><BR>
 195:F:/GitHub Projects/FH Luzern/BAT/BAT/Dave/Generated/DIGITAL_IO\digital_io.h **** * None
 196:F:/GitHub Projects/FH Luzern/BAT/BAT/Dave/Generated/DIGITAL_IO\digital_io.h **** *
 197:F:/GitHub Projects/FH Luzern/BAT/BAT/Dave/Generated/DIGITAL_IO\digital_io.h **** * Example Usage:
 198:F:/GitHub Projects/FH Luzern/BAT/BAT/Dave/Generated/DIGITAL_IO\digital_io.h **** * @code
 199:F:/GitHub Projects/FH Luzern/BAT/BAT/Dave/Generated/DIGITAL_IO\digital_io.h **** * #include <DAVE.h>//Declarations from DAVE Code Generation (includes SFR declaration)
 200:F:/GitHub Projects/FH Luzern/BAT/BAT/Dave/Generated/DIGITAL_IO\digital_io.h **** * int main(void)
 201:F:/GitHub Projects/FH Luzern/BAT/BAT/Dave/Generated/DIGITAL_IO\digital_io.h **** * {
 202:F:/GitHub Projects/FH Luzern/BAT/BAT/Dave/Generated/DIGITAL_IO\digital_io.h **** *   DAVE_STATUS_t status;
 203:F:/GitHub Projects/FH Luzern/BAT/BAT/Dave/Generated/DIGITAL_IO\digital_io.h **** *   status = DAVE_Init();  //(DAVE_STATUS_t)DIGITAL_IO_Init(&DIGITAL_IO_0) is called within DAVE_In
 204:F:/GitHub Projects/FH Luzern/BAT/BAT/Dave/Generated/DIGITAL_IO\digital_io.h **** *   if(status == DAVE_STATUS_SUCCESS)
 205:F:/GitHub Projects/FH Luzern/BAT/BAT/Dave/Generated/DIGITAL_IO\digital_io.h **** *   {
 206:F:/GitHub Projects/FH Luzern/BAT/BAT/Dave/Generated/DIGITAL_IO\digital_io.h **** *     XMC_DEBUG("DAVE Apps initialization success\n");
 207:F:/GitHub Projects/FH Luzern/BAT/BAT/Dave/Generated/DIGITAL_IO\digital_io.h **** *   }
 208:F:/GitHub Projects/FH Luzern/BAT/BAT/Dave/Generated/DIGITAL_IO\digital_io.h **** *   else
 209:F:/GitHub Projects/FH Luzern/BAT/BAT/Dave/Generated/DIGITAL_IO\digital_io.h **** *   {
 210:F:/GitHub Projects/FH Luzern/BAT/BAT/Dave/Generated/DIGITAL_IO\digital_io.h **** *     XMC_DEBUG(("DAVE Apps initialization failed with status %d\n", status));
 211:F:/GitHub Projects/FH Luzern/BAT/BAT/Dave/Generated/DIGITAL_IO\digital_io.h **** *     while(1U)
 212:F:/GitHub Projects/FH Luzern/BAT/BAT/Dave/Generated/DIGITAL_IO\digital_io.h **** *     {
 213:F:/GitHub Projects/FH Luzern/BAT/BAT/Dave/Generated/DIGITAL_IO\digital_io.h **** *     }
 214:F:/GitHub Projects/FH Luzern/BAT/BAT/Dave/Generated/DIGITAL_IO\digital_io.h **** *   }
 215:F:/GitHub Projects/FH Luzern/BAT/BAT/Dave/Generated/DIGITAL_IO\digital_io.h **** *   //Placeholder for user application code. The while loop below can be replaced with user applica
 216:F:/GitHub Projects/FH Luzern/BAT/BAT/Dave/Generated/DIGITAL_IO\digital_io.h **** *   while(1U)
 217:F:/GitHub Projects/FH Luzern/BAT/BAT/Dave/Generated/DIGITAL_IO\digital_io.h **** *   {
 218:F:/GitHub Projects/FH Luzern/BAT/BAT/Dave/Generated/DIGITAL_IO\digital_io.h **** *   }
 219:F:/GitHub Projects/FH Luzern/BAT/BAT/Dave/Generated/DIGITAL_IO\digital_io.h **** *   return 1U;
 220:F:/GitHub Projects/FH Luzern/BAT/BAT/Dave/Generated/DIGITAL_IO\digital_io.h **** *  }
 221:F:/GitHub Projects/FH Luzern/BAT/BAT/Dave/Generated/DIGITAL_IO\digital_io.h **** *  @endcode
 222:F:/GitHub Projects/FH Luzern/BAT/BAT/Dave/Generated/DIGITAL_IO\digital_io.h **** */
 223:F:/GitHub Projects/FH Luzern/BAT/BAT/Dave/Generated/DIGITAL_IO\digital_io.h **** 
 224:F:/GitHub Projects/FH Luzern/BAT/BAT/Dave/Generated/DIGITAL_IO\digital_io.h **** DIGITAL_IO_STATUS_t DIGITAL_IO_Init(const DIGITAL_IO_t *const handler);
 225:F:/GitHub Projects/FH Luzern/BAT/BAT/Dave/Generated/DIGITAL_IO\digital_io.h **** 
 226:F:/GitHub Projects/FH Luzern/BAT/BAT/Dave/Generated/DIGITAL_IO\digital_io.h **** /**
 227:F:/GitHub Projects/FH Luzern/BAT/BAT/Dave/Generated/DIGITAL_IO\digital_io.h **** *
 228:F:/GitHub Projects/FH Luzern/BAT/BAT/Dave/Generated/DIGITAL_IO\digital_io.h **** * @brief Function to set port pin high.
 229:F:/GitHub Projects/FH Luzern/BAT/BAT/Dave/Generated/DIGITAL_IO\digital_io.h **** * @param handler Pointer pointing to APP data structure. Refer @ref DIGITAL_IO_t for details.
 230:F:/GitHub Projects/FH Luzern/BAT/BAT/Dave/Generated/DIGITAL_IO\digital_io.h **** * @return None
 231:F:/GitHub Projects/FH Luzern/BAT/BAT/Dave/Generated/DIGITAL_IO\digital_io.h **** *
 232:F:/GitHub Projects/FH Luzern/BAT/BAT/Dave/Generated/DIGITAL_IO\digital_io.h **** * \par<b>Description:</b><br>
 233:F:/GitHub Projects/FH Luzern/BAT/BAT/Dave/Generated/DIGITAL_IO\digital_io.h **** * This function configures port output modification register Pn_OMR, to make port pin to high level
 234:F:/GitHub Projects/FH Luzern/BAT/BAT/Dave/Generated/DIGITAL_IO\digital_io.h **** *
 235:F:/GitHub Projects/FH Luzern/BAT/BAT/Dave/Generated/DIGITAL_IO\digital_io.h **** * \par<b>Related APIs:</b><BR>
 236:F:/GitHub Projects/FH Luzern/BAT/BAT/Dave/Generated/DIGITAL_IO\digital_io.h **** *  DIGITAL_IO_SetOutputLow()
 237:F:/GitHub Projects/FH Luzern/BAT/BAT/Dave/Generated/DIGITAL_IO\digital_io.h **** *
 238:F:/GitHub Projects/FH Luzern/BAT/BAT/Dave/Generated/DIGITAL_IO\digital_io.h **** * Example Usage:
 239:F:/GitHub Projects/FH Luzern/BAT/BAT/Dave/Generated/DIGITAL_IO\digital_io.h **** * @code
 240:F:/GitHub Projects/FH Luzern/BAT/BAT/Dave/Generated/DIGITAL_IO\digital_io.h **** * #include <DAVE.h>//Declarations from DAVE Code Generation (includes SFR declaration)
 241:F:/GitHub Projects/FH Luzern/BAT/BAT/Dave/Generated/DIGITAL_IO\digital_io.h **** * int main(void)
 242:F:/GitHub Projects/FH Luzern/BAT/BAT/Dave/Generated/DIGITAL_IO\digital_io.h **** * {
 243:F:/GitHub Projects/FH Luzern/BAT/BAT/Dave/Generated/DIGITAL_IO\digital_io.h **** *   DAVE_STATUS_t status;
 244:F:/GitHub Projects/FH Luzern/BAT/BAT/Dave/Generated/DIGITAL_IO\digital_io.h **** *   status = DAVE_Init();  //(DAVE_STATUS_t)DIGITAL_IO_Init(&DIGITAL_IO_0) is called within DAVE_In
 245:F:/GitHub Projects/FH Luzern/BAT/BAT/Dave/Generated/DIGITAL_IO\digital_io.h **** *   if(status == DAVE_STATUS_SUCCESS)
 246:F:/GitHub Projects/FH Luzern/BAT/BAT/Dave/Generated/DIGITAL_IO\digital_io.h **** *   {
 247:F:/GitHub Projects/FH Luzern/BAT/BAT/Dave/Generated/DIGITAL_IO\digital_io.h **** *     XMC_DEBUG("DAVE Apps initialization success\n");
 248:F:/GitHub Projects/FH Luzern/BAT/BAT/Dave/Generated/DIGITAL_IO\digital_io.h **** *   }
 249:F:/GitHub Projects/FH Luzern/BAT/BAT/Dave/Generated/DIGITAL_IO\digital_io.h **** *   else
 250:F:/GitHub Projects/FH Luzern/BAT/BAT/Dave/Generated/DIGITAL_IO\digital_io.h **** *   {
 251:F:/GitHub Projects/FH Luzern/BAT/BAT/Dave/Generated/DIGITAL_IO\digital_io.h **** *     XMC_DEBUG(("DAVE Apps initialization failed with status %d\n", status));
 252:F:/GitHub Projects/FH Luzern/BAT/BAT/Dave/Generated/DIGITAL_IO\digital_io.h **** *     while(1U)
 253:F:/GitHub Projects/FH Luzern/BAT/BAT/Dave/Generated/DIGITAL_IO\digital_io.h **** *     {
 254:F:/GitHub Projects/FH Luzern/BAT/BAT/Dave/Generated/DIGITAL_IO\digital_io.h **** *     }
 255:F:/GitHub Projects/FH Luzern/BAT/BAT/Dave/Generated/DIGITAL_IO\digital_io.h **** *   }
 256:F:/GitHub Projects/FH Luzern/BAT/BAT/Dave/Generated/DIGITAL_IO\digital_io.h **** *   //Placeholder for user application code. The while loop below can be replaced with user applica
 257:F:/GitHub Projects/FH Luzern/BAT/BAT/Dave/Generated/DIGITAL_IO\digital_io.h **** *   DIGITAL_IO_SetOutputHigh(&DIGITAL_IO_0);
 258:F:/GitHub Projects/FH Luzern/BAT/BAT/Dave/Generated/DIGITAL_IO\digital_io.h **** *   while(1U)
 259:F:/GitHub Projects/FH Luzern/BAT/BAT/Dave/Generated/DIGITAL_IO\digital_io.h **** *   {
 260:F:/GitHub Projects/FH Luzern/BAT/BAT/Dave/Generated/DIGITAL_IO\digital_io.h **** *     // Add application code here
 261:F:/GitHub Projects/FH Luzern/BAT/BAT/Dave/Generated/DIGITAL_IO\digital_io.h **** *   }
 262:F:/GitHub Projects/FH Luzern/BAT/BAT/Dave/Generated/DIGITAL_IO\digital_io.h **** *
 263:F:/GitHub Projects/FH Luzern/BAT/BAT/Dave/Generated/DIGITAL_IO\digital_io.h **** *   return (1);
 264:F:/GitHub Projects/FH Luzern/BAT/BAT/Dave/Generated/DIGITAL_IO\digital_io.h **** * }
 265:F:/GitHub Projects/FH Luzern/BAT/BAT/Dave/Generated/DIGITAL_IO\digital_io.h **** *  @endcode
 266:F:/GitHub Projects/FH Luzern/BAT/BAT/Dave/Generated/DIGITAL_IO\digital_io.h **** */
 267:F:/GitHub Projects/FH Luzern/BAT/BAT/Dave/Generated/DIGITAL_IO\digital_io.h **** 
 268:F:/GitHub Projects/FH Luzern/BAT/BAT/Dave/Generated/DIGITAL_IO\digital_io.h **** __STATIC_INLINE void DIGITAL_IO_SetOutputHigh(const DIGITAL_IO_t *const handler)
 269:F:/GitHub Projects/FH Luzern/BAT/BAT/Dave/Generated/DIGITAL_IO\digital_io.h **** {
 170              	 .loc 2 269 0
 171              	 .cfi_startproc
 172              	 
 173              	 
 174 0000 80B5     	 push {r7,lr}
 175              	.LCFI18:
 176              	 .cfi_def_cfa_offset 8
 177              	 .cfi_offset 7,-8
 178              	 .cfi_offset 14,-4
 179 0002 82B0     	 sub sp,sp,#8
 180              	.LCFI19:
 181              	 .cfi_def_cfa_offset 16
 182 0004 00AF     	 add r7,sp,#0
 183              	.LCFI20:
 184              	 .cfi_def_cfa_register 7
 185 0006 7860     	 str r0,[r7,#4]
 270:F:/GitHub Projects/FH Luzern/BAT/BAT/Dave/Generated/DIGITAL_IO\digital_io.h ****   XMC_ASSERT("DIGITAL_IO_SetOutputHigh: handler null pointer", handler != NULL);
 271:F:/GitHub Projects/FH Luzern/BAT/BAT/Dave/Generated/DIGITAL_IO\digital_io.h ****   XMC_GPIO_SetOutputHigh(handler->gpio_port, handler->gpio_pin);
 186              	 .loc 2 271 0
 187 0008 7B68     	 ldr r3,[r7,#4]
 188 000a 1A68     	 ldr r2,[r3]
 189 000c 7B68     	 ldr r3,[r7,#4]
 190 000e 1B7C     	 ldrb r3,[r3,#16]
 191 0010 1046     	 mov r0,r2
 192 0012 1946     	 mov r1,r3
 193 0014 FFF7FEFF 	 bl XMC_GPIO_SetOutputHigh
 272:F:/GitHub Projects/FH Luzern/BAT/BAT/Dave/Generated/DIGITAL_IO\digital_io.h **** }
 194              	 .loc 2 272 0
 195 0018 0837     	 adds r7,r7,#8
 196              	.LCFI21:
 197              	 .cfi_def_cfa_offset 8
 198 001a BD46     	 mov sp,r7
 199              	.LCFI22:
 200              	 .cfi_def_cfa_register 13
 201              	 
 202 001c 80BD     	 pop {r7,pc}
 203              	 .cfi_endproc
 204              	.LFE239:
 206 001e 00BF     	 .section .text.DIGITAL_IO_SetOutputLow,"ax",%progbits
 207              	 .align 2
 208              	 .thumb
 209              	 .thumb_func
 211              	DIGITAL_IO_SetOutputLow:
 212              	.LFB240:
 273:F:/GitHub Projects/FH Luzern/BAT/BAT/Dave/Generated/DIGITAL_IO\digital_io.h **** 
 274:F:/GitHub Projects/FH Luzern/BAT/BAT/Dave/Generated/DIGITAL_IO\digital_io.h **** /**
 275:F:/GitHub Projects/FH Luzern/BAT/BAT/Dave/Generated/DIGITAL_IO\digital_io.h **** * @brief Function to reset port pin.
 276:F:/GitHub Projects/FH Luzern/BAT/BAT/Dave/Generated/DIGITAL_IO\digital_io.h **** * @param handler Pointer pointing to APP data structure. Refer @ref DIGITAL_IO_t for details.
 277:F:/GitHub Projects/FH Luzern/BAT/BAT/Dave/Generated/DIGITAL_IO\digital_io.h **** * @return None
 278:F:/GitHub Projects/FH Luzern/BAT/BAT/Dave/Generated/DIGITAL_IO\digital_io.h **** *
 279:F:/GitHub Projects/FH Luzern/BAT/BAT/Dave/Generated/DIGITAL_IO\digital_io.h **** * \par<b>Description:</b><br>
 280:F:/GitHub Projects/FH Luzern/BAT/BAT/Dave/Generated/DIGITAL_IO\digital_io.h **** * This function configures port output modification register Pn_OMR, to make port pin to low level.
 281:F:/GitHub Projects/FH Luzern/BAT/BAT/Dave/Generated/DIGITAL_IO\digital_io.h **** *
 282:F:/GitHub Projects/FH Luzern/BAT/BAT/Dave/Generated/DIGITAL_IO\digital_io.h **** * \par<b>Related APIs:</b><BR>
 283:F:/GitHub Projects/FH Luzern/BAT/BAT/Dave/Generated/DIGITAL_IO\digital_io.h **** * DIGITAL_IO_SetOutputHigh()
 284:F:/GitHub Projects/FH Luzern/BAT/BAT/Dave/Generated/DIGITAL_IO\digital_io.h **** *
 285:F:/GitHub Projects/FH Luzern/BAT/BAT/Dave/Generated/DIGITAL_IO\digital_io.h **** * Example Usage:
 286:F:/GitHub Projects/FH Luzern/BAT/BAT/Dave/Generated/DIGITAL_IO\digital_io.h **** * @code
 287:F:/GitHub Projects/FH Luzern/BAT/BAT/Dave/Generated/DIGITAL_IO\digital_io.h **** *  #include <DAVE.h>//Declarations from DAVE Code Generation (includes SFR declaration)
 288:F:/GitHub Projects/FH Luzern/BAT/BAT/Dave/Generated/DIGITAL_IO\digital_io.h **** *  int main(void)
 289:F:/GitHub Projects/FH Luzern/BAT/BAT/Dave/Generated/DIGITAL_IO\digital_io.h **** *  {
 290:F:/GitHub Projects/FH Luzern/BAT/BAT/Dave/Generated/DIGITAL_IO\digital_io.h **** *    DAVE_STATUS_t status;
 291:F:/GitHub Projects/FH Luzern/BAT/BAT/Dave/Generated/DIGITAL_IO\digital_io.h **** *    status = DAVE_Init();  //(DAVE_STATUS_t)DIGITAL_IO_Init(&DIGITAL_IO_0) is called within DAVE_I
 292:F:/GitHub Projects/FH Luzern/BAT/BAT/Dave/Generated/DIGITAL_IO\digital_io.h **** *    if(status == DAVE_STATUS_SUCCESS)
 293:F:/GitHub Projects/FH Luzern/BAT/BAT/Dave/Generated/DIGITAL_IO\digital_io.h **** *    {
 294:F:/GitHub Projects/FH Luzern/BAT/BAT/Dave/Generated/DIGITAL_IO\digital_io.h **** *      XMC_DEBUG("DAVE Apps initialization success\n");
 295:F:/GitHub Projects/FH Luzern/BAT/BAT/Dave/Generated/DIGITAL_IO\digital_io.h **** *    }
 296:F:/GitHub Projects/FH Luzern/BAT/BAT/Dave/Generated/DIGITAL_IO\digital_io.h **** *    else
 297:F:/GitHub Projects/FH Luzern/BAT/BAT/Dave/Generated/DIGITAL_IO\digital_io.h **** *    {
 298:F:/GitHub Projects/FH Luzern/BAT/BAT/Dave/Generated/DIGITAL_IO\digital_io.h **** *      XMC_DEBUG(("DAVE Apps initialization failed with status %d\n", status));
 299:F:/GitHub Projects/FH Luzern/BAT/BAT/Dave/Generated/DIGITAL_IO\digital_io.h **** *      while(1U)
 300:F:/GitHub Projects/FH Luzern/BAT/BAT/Dave/Generated/DIGITAL_IO\digital_io.h **** *      {
 301:F:/GitHub Projects/FH Luzern/BAT/BAT/Dave/Generated/DIGITAL_IO\digital_io.h **** *      }
 302:F:/GitHub Projects/FH Luzern/BAT/BAT/Dave/Generated/DIGITAL_IO\digital_io.h **** *    }
 303:F:/GitHub Projects/FH Luzern/BAT/BAT/Dave/Generated/DIGITAL_IO\digital_io.h **** *    //Placeholder for user application code. The while loop below can be replaced with user applic
 304:F:/GitHub Projects/FH Luzern/BAT/BAT/Dave/Generated/DIGITAL_IO\digital_io.h **** *    DIGITAL_IO_SetOutputLow(&DIGITAL_IO_0);
 305:F:/GitHub Projects/FH Luzern/BAT/BAT/Dave/Generated/DIGITAL_IO\digital_io.h **** *    while(1U)
 306:F:/GitHub Projects/FH Luzern/BAT/BAT/Dave/Generated/DIGITAL_IO\digital_io.h **** *    {
 307:F:/GitHub Projects/FH Luzern/BAT/BAT/Dave/Generated/DIGITAL_IO\digital_io.h **** *      // Add application code here
 308:F:/GitHub Projects/FH Luzern/BAT/BAT/Dave/Generated/DIGITAL_IO\digital_io.h **** *    }
 309:F:/GitHub Projects/FH Luzern/BAT/BAT/Dave/Generated/DIGITAL_IO\digital_io.h **** *
 310:F:/GitHub Projects/FH Luzern/BAT/BAT/Dave/Generated/DIGITAL_IO\digital_io.h **** *   return (1);
 311:F:/GitHub Projects/FH Luzern/BAT/BAT/Dave/Generated/DIGITAL_IO\digital_io.h **** * }
 312:F:/GitHub Projects/FH Luzern/BAT/BAT/Dave/Generated/DIGITAL_IO\digital_io.h **** *  @endcode
 313:F:/GitHub Projects/FH Luzern/BAT/BAT/Dave/Generated/DIGITAL_IO\digital_io.h **** */
 314:F:/GitHub Projects/FH Luzern/BAT/BAT/Dave/Generated/DIGITAL_IO\digital_io.h **** 
 315:F:/GitHub Projects/FH Luzern/BAT/BAT/Dave/Generated/DIGITAL_IO\digital_io.h **** __STATIC_INLINE void DIGITAL_IO_SetOutputLow(const DIGITAL_IO_t *const handler)
 316:F:/GitHub Projects/FH Luzern/BAT/BAT/Dave/Generated/DIGITAL_IO\digital_io.h **** {
 213              	 .loc 2 316 0
 214              	 .cfi_startproc
 215              	 
 216              	 
 217 0000 80B5     	 push {r7,lr}
 218              	.LCFI23:
 219              	 .cfi_def_cfa_offset 8
 220              	 .cfi_offset 7,-8
 221              	 .cfi_offset 14,-4
 222 0002 82B0     	 sub sp,sp,#8
 223              	.LCFI24:
 224              	 .cfi_def_cfa_offset 16
 225 0004 00AF     	 add r7,sp,#0
 226              	.LCFI25:
 227              	 .cfi_def_cfa_register 7
 228 0006 7860     	 str r0,[r7,#4]
 317:F:/GitHub Projects/FH Luzern/BAT/BAT/Dave/Generated/DIGITAL_IO\digital_io.h ****   XMC_ASSERT("DIGITAL_IO_SetOutputLow: handler null pointer", handler != NULL);
 318:F:/GitHub Projects/FH Luzern/BAT/BAT/Dave/Generated/DIGITAL_IO\digital_io.h ****   XMC_GPIO_SetOutputLow(handler->gpio_port,handler->gpio_pin);
 229              	 .loc 2 318 0
 230 0008 7B68     	 ldr r3,[r7,#4]
 231 000a 1A68     	 ldr r2,[r3]
 232 000c 7B68     	 ldr r3,[r7,#4]
 233 000e 1B7C     	 ldrb r3,[r3,#16]
 234 0010 1046     	 mov r0,r2
 235 0012 1946     	 mov r1,r3
 236 0014 FFF7FEFF 	 bl XMC_GPIO_SetOutputLow
 319:F:/GitHub Projects/FH Luzern/BAT/BAT/Dave/Generated/DIGITAL_IO\digital_io.h **** }
 237              	 .loc 2 319 0
 238 0018 0837     	 adds r7,r7,#8
 239              	.LCFI26:
 240              	 .cfi_def_cfa_offset 8
 241 001a BD46     	 mov sp,r7
 242              	.LCFI27:
 243              	 .cfi_def_cfa_register 13
 244              	 
 245 001c 80BD     	 pop {r7,pc}
 246              	 .cfi_endproc
 247              	.LFE240:
 249 001e 00BF     	 .section .text.DIGITAL_IO_GetInput,"ax",%progbits
 250              	 .align 2
 251              	 .thumb
 252              	 .thumb_func
 254              	DIGITAL_IO_GetInput:
 255              	.LFB242:
 320:F:/GitHub Projects/FH Luzern/BAT/BAT/Dave/Generated/DIGITAL_IO\digital_io.h **** 
 321:F:/GitHub Projects/FH Luzern/BAT/BAT/Dave/Generated/DIGITAL_IO\digital_io.h **** /**
 322:F:/GitHub Projects/FH Luzern/BAT/BAT/Dave/Generated/DIGITAL_IO\digital_io.h **** * @brief Function to Toggle port pin.
 323:F:/GitHub Projects/FH Luzern/BAT/BAT/Dave/Generated/DIGITAL_IO\digital_io.h **** * @param handler Pointer pointing to APP data structure. Refer @ref DIGITAL_IO_t for details.
 324:F:/GitHub Projects/FH Luzern/BAT/BAT/Dave/Generated/DIGITAL_IO\digital_io.h **** * @return None
 325:F:/GitHub Projects/FH Luzern/BAT/BAT/Dave/Generated/DIGITAL_IO\digital_io.h **** *
 326:F:/GitHub Projects/FH Luzern/BAT/BAT/Dave/Generated/DIGITAL_IO\digital_io.h **** * \par<b>Description:</b><br>
 327:F:/GitHub Projects/FH Luzern/BAT/BAT/Dave/Generated/DIGITAL_IO\digital_io.h **** * This function configures port output modification register Pn_OMR, to toggle port pin.
 328:F:/GitHub Projects/FH Luzern/BAT/BAT/Dave/Generated/DIGITAL_IO\digital_io.h **** *
 329:F:/GitHub Projects/FH Luzern/BAT/BAT/Dave/Generated/DIGITAL_IO\digital_io.h **** * \par<b>Related APIs:</b><BR>
 330:F:/GitHub Projects/FH Luzern/BAT/BAT/Dave/Generated/DIGITAL_IO\digital_io.h **** * DIGITAL_IO_SetOutputLow(), DIGITAL_IO_SetOutputHigh()
 331:F:/GitHub Projects/FH Luzern/BAT/BAT/Dave/Generated/DIGITAL_IO\digital_io.h **** *
 332:F:/GitHub Projects/FH Luzern/BAT/BAT/Dave/Generated/DIGITAL_IO\digital_io.h **** * Example Usage:
 333:F:/GitHub Projects/FH Luzern/BAT/BAT/Dave/Generated/DIGITAL_IO\digital_io.h **** *
 334:F:/GitHub Projects/FH Luzern/BAT/BAT/Dave/Generated/DIGITAL_IO\digital_io.h **** * @code
 335:F:/GitHub Projects/FH Luzern/BAT/BAT/Dave/Generated/DIGITAL_IO\digital_io.h **** * #include <DAVE.h>//Declarations from DAVE Code Generation (includes SFR declaration)
 336:F:/GitHub Projects/FH Luzern/BAT/BAT/Dave/Generated/DIGITAL_IO\digital_io.h **** * int main(void)
 337:F:/GitHub Projects/FH Luzern/BAT/BAT/Dave/Generated/DIGITAL_IO\digital_io.h **** * {
 338:F:/GitHub Projects/FH Luzern/BAT/BAT/Dave/Generated/DIGITAL_IO\digital_io.h **** *   DAVE_STATUS_t status;
 339:F:/GitHub Projects/FH Luzern/BAT/BAT/Dave/Generated/DIGITAL_IO\digital_io.h **** *   uint32_t delay_count;;
 340:F:/GitHub Projects/FH Luzern/BAT/BAT/Dave/Generated/DIGITAL_IO\digital_io.h **** *   status = DAVE_Init();  //(DAVE_STATUS_t)DIGITAL_IO_Init(&DIGITAL_IO_0) is called within DAVE_In
 341:F:/GitHub Projects/FH Luzern/BAT/BAT/Dave/Generated/DIGITAL_IO\digital_io.h **** *   if(status == DAVE_STATUS_SUCCESS)
 342:F:/GitHub Projects/FH Luzern/BAT/BAT/Dave/Generated/DIGITAL_IO\digital_io.h **** *   {
 343:F:/GitHub Projects/FH Luzern/BAT/BAT/Dave/Generated/DIGITAL_IO\digital_io.h **** *     XMC_DEBUG("DAVE Apps initialization success\n");
 344:F:/GitHub Projects/FH Luzern/BAT/BAT/Dave/Generated/DIGITAL_IO\digital_io.h **** *   }
 345:F:/GitHub Projects/FH Luzern/BAT/BAT/Dave/Generated/DIGITAL_IO\digital_io.h **** *   else
 346:F:/GitHub Projects/FH Luzern/BAT/BAT/Dave/Generated/DIGITAL_IO\digital_io.h **** *   {
 347:F:/GitHub Projects/FH Luzern/BAT/BAT/Dave/Generated/DIGITAL_IO\digital_io.h **** *      XMC_DEBUG(("DAVE Apps initialization failed with status %d\n", status));
 348:F:/GitHub Projects/FH Luzern/BAT/BAT/Dave/Generated/DIGITAL_IO\digital_io.h **** *      while(1U)
 349:F:/GitHub Projects/FH Luzern/BAT/BAT/Dave/Generated/DIGITAL_IO\digital_io.h **** *      {
 350:F:/GitHub Projects/FH Luzern/BAT/BAT/Dave/Generated/DIGITAL_IO\digital_io.h **** *      }
 351:F:/GitHub Projects/FH Luzern/BAT/BAT/Dave/Generated/DIGITAL_IO\digital_io.h **** *   }
 352:F:/GitHub Projects/FH Luzern/BAT/BAT/Dave/Generated/DIGITAL_IO\digital_io.h **** *   //Placeholder for user application code. The while loop below can be replaced with user applica
 353:F:/GitHub Projects/FH Luzern/BAT/BAT/Dave/Generated/DIGITAL_IO\digital_io.h **** *   while(1U)
 354:F:/GitHub Projects/FH Luzern/BAT/BAT/Dave/Generated/DIGITAL_IO\digital_io.h **** *   {
 355:F:/GitHub Projects/FH Luzern/BAT/BAT/Dave/Generated/DIGITAL_IO\digital_io.h **** *      DIGITAL_IO_ToggleOutput(&DIGITAL_IO_0); //toggles : 1 -> 0 (if initial output level is logic
 356:F:/GitHub Projects/FH Luzern/BAT/BAT/Dave/Generated/DIGITAL_IO\digital_io.h **** *      //Add application code here
 357:F:/GitHub Projects/FH Luzern/BAT/BAT/Dave/Generated/DIGITAL_IO\digital_io.h **** *      for(delay_count = 0;delay_count<0xfffff;delay_count++);
 358:F:/GitHub Projects/FH Luzern/BAT/BAT/Dave/Generated/DIGITAL_IO\digital_io.h **** *      DIGITAL_IO_ToggleOutput(&DIGITAL_IO_0); //toggles : 0 -> 1
 359:F:/GitHub Projects/FH Luzern/BAT/BAT/Dave/Generated/DIGITAL_IO\digital_io.h **** *      //Add application code here
 360:F:/GitHub Projects/FH Luzern/BAT/BAT/Dave/Generated/DIGITAL_IO\digital_io.h **** *      for(delay_count = 0;delay_count<0xfffff;delay_count++);
 361:F:/GitHub Projects/FH Luzern/BAT/BAT/Dave/Generated/DIGITAL_IO\digital_io.h **** *   }
 362:F:/GitHub Projects/FH Luzern/BAT/BAT/Dave/Generated/DIGITAL_IO\digital_io.h **** *   return (1);
 363:F:/GitHub Projects/FH Luzern/BAT/BAT/Dave/Generated/DIGITAL_IO\digital_io.h **** * }
 364:F:/GitHub Projects/FH Luzern/BAT/BAT/Dave/Generated/DIGITAL_IO\digital_io.h **** *  @endcode
 365:F:/GitHub Projects/FH Luzern/BAT/BAT/Dave/Generated/DIGITAL_IO\digital_io.h **** */
 366:F:/GitHub Projects/FH Luzern/BAT/BAT/Dave/Generated/DIGITAL_IO\digital_io.h **** 
 367:F:/GitHub Projects/FH Luzern/BAT/BAT/Dave/Generated/DIGITAL_IO\digital_io.h **** __STATIC_INLINE void DIGITAL_IO_ToggleOutput(const DIGITAL_IO_t *const handler)
 368:F:/GitHub Projects/FH Luzern/BAT/BAT/Dave/Generated/DIGITAL_IO\digital_io.h **** {
 369:F:/GitHub Projects/FH Luzern/BAT/BAT/Dave/Generated/DIGITAL_IO\digital_io.h ****   XMC_ASSERT("DIGITAL_IO_ToggleOutput: handler null pointer", handler != NULL);
 370:F:/GitHub Projects/FH Luzern/BAT/BAT/Dave/Generated/DIGITAL_IO\digital_io.h ****   XMC_GPIO_ToggleOutput(handler->gpio_port, handler->gpio_pin);
 371:F:/GitHub Projects/FH Luzern/BAT/BAT/Dave/Generated/DIGITAL_IO\digital_io.h **** }
 372:F:/GitHub Projects/FH Luzern/BAT/BAT/Dave/Generated/DIGITAL_IO\digital_io.h **** 
 373:F:/GitHub Projects/FH Luzern/BAT/BAT/Dave/Generated/DIGITAL_IO\digital_io.h **** /**
 374:F:/GitHub Projects/FH Luzern/BAT/BAT/Dave/Generated/DIGITAL_IO\digital_io.h **** * @brief Function to read input level of port pin.
 375:F:/GitHub Projects/FH Luzern/BAT/BAT/Dave/Generated/DIGITAL_IO\digital_io.h **** * @param handler Pointer pointing to APP data structure. Refer @ref DIGITAL_IO_t for details.
 376:F:/GitHub Projects/FH Luzern/BAT/BAT/Dave/Generated/DIGITAL_IO\digital_io.h **** * @return uint32_t input logic level. Range:0-1
 377:F:/GitHub Projects/FH Luzern/BAT/BAT/Dave/Generated/DIGITAL_IO\digital_io.h **** *
 378:F:/GitHub Projects/FH Luzern/BAT/BAT/Dave/Generated/DIGITAL_IO\digital_io.h **** * \par<b>Description:</b><br>
 379:F:/GitHub Projects/FH Luzern/BAT/BAT/Dave/Generated/DIGITAL_IO\digital_io.h **** * This function reads the Pn_IN register and returns the current logical value at the GPIO pin.
 380:F:/GitHub Projects/FH Luzern/BAT/BAT/Dave/Generated/DIGITAL_IO\digital_io.h **** *
 381:F:/GitHub Projects/FH Luzern/BAT/BAT/Dave/Generated/DIGITAL_IO\digital_io.h **** * \par<b>Related APIs:</b><BR>
 382:F:/GitHub Projects/FH Luzern/BAT/BAT/Dave/Generated/DIGITAL_IO\digital_io.h **** *  None
 383:F:/GitHub Projects/FH Luzern/BAT/BAT/Dave/Generated/DIGITAL_IO\digital_io.h **** *
 384:F:/GitHub Projects/FH Luzern/BAT/BAT/Dave/Generated/DIGITAL_IO\digital_io.h **** * Example Usage:
 385:F:/GitHub Projects/FH Luzern/BAT/BAT/Dave/Generated/DIGITAL_IO\digital_io.h **** * @code
 386:F:/GitHub Projects/FH Luzern/BAT/BAT/Dave/Generated/DIGITAL_IO\digital_io.h **** * #include <DAVE.h>//Declarations from DAVE Code Generation (includes SFR declaration)
 387:F:/GitHub Projects/FH Luzern/BAT/BAT/Dave/Generated/DIGITAL_IO\digital_io.h **** * int main(void)
 388:F:/GitHub Projects/FH Luzern/BAT/BAT/Dave/Generated/DIGITAL_IO\digital_io.h **** * {
 389:F:/GitHub Projects/FH Luzern/BAT/BAT/Dave/Generated/DIGITAL_IO\digital_io.h **** *   DAVE_STATUS_t status;
 390:F:/GitHub Projects/FH Luzern/BAT/BAT/Dave/Generated/DIGITAL_IO\digital_io.h **** *   uint32_t pin_status;
 391:F:/GitHub Projects/FH Luzern/BAT/BAT/Dave/Generated/DIGITAL_IO\digital_io.h **** *   status = DAVE_Init();   // (DAVE_STATUS_t)DIGITAL_IO_Init(&DIGITAL_IO_0) is called within DAVE_
 392:F:/GitHub Projects/FH Luzern/BAT/BAT/Dave/Generated/DIGITAL_IO\digital_io.h **** *   if(status == DAVE_STATUS_SUCCESS)
 393:F:/GitHub Projects/FH Luzern/BAT/BAT/Dave/Generated/DIGITAL_IO\digital_io.h **** *   {
 394:F:/GitHub Projects/FH Luzern/BAT/BAT/Dave/Generated/DIGITAL_IO\digital_io.h **** *     XMC_DEBUG("DAVE Apps initialization success\n");
 395:F:/GitHub Projects/FH Luzern/BAT/BAT/Dave/Generated/DIGITAL_IO\digital_io.h **** *   }
 396:F:/GitHub Projects/FH Luzern/BAT/BAT/Dave/Generated/DIGITAL_IO\digital_io.h **** *   else
 397:F:/GitHub Projects/FH Luzern/BAT/BAT/Dave/Generated/DIGITAL_IO\digital_io.h **** *   {
 398:F:/GitHub Projects/FH Luzern/BAT/BAT/Dave/Generated/DIGITAL_IO\digital_io.h **** *     XMC_DEBUG(("DAVE Apps initialization failed with status %d\n", status));
 399:F:/GitHub Projects/FH Luzern/BAT/BAT/Dave/Generated/DIGITAL_IO\digital_io.h **** *     while(1U)
 400:F:/GitHub Projects/FH Luzern/BAT/BAT/Dave/Generated/DIGITAL_IO\digital_io.h **** *     {
 401:F:/GitHub Projects/FH Luzern/BAT/BAT/Dave/Generated/DIGITAL_IO\digital_io.h **** *     }
 402:F:/GitHub Projects/FH Luzern/BAT/BAT/Dave/Generated/DIGITAL_IO\digital_io.h **** *   }
 403:F:/GitHub Projects/FH Luzern/BAT/BAT/Dave/Generated/DIGITAL_IO\digital_io.h **** *   //Placeholder for user application code. The while loop below can be replaced with user applica
 404:F:/GitHub Projects/FH Luzern/BAT/BAT/Dave/Generated/DIGITAL_IO\digital_io.h **** *   while(1U)
 405:F:/GitHub Projects/FH Luzern/BAT/BAT/Dave/Generated/DIGITAL_IO\digital_io.h **** *   {
 406:F:/GitHub Projects/FH Luzern/BAT/BAT/Dave/Generated/DIGITAL_IO\digital_io.h **** *     pin_status = DIGITAL_IO_GetInput(&DIGITAL_IO_0);
 407:F:/GitHub Projects/FH Luzern/BAT/BAT/Dave/Generated/DIGITAL_IO\digital_io.h **** *     if(pin_status == 1)
 408:F:/GitHub Projects/FH Luzern/BAT/BAT/Dave/Generated/DIGITAL_IO\digital_io.h **** *     {
 409:F:/GitHub Projects/FH Luzern/BAT/BAT/Dave/Generated/DIGITAL_IO\digital_io.h **** *       // Add application code here
 410:F:/GitHub Projects/FH Luzern/BAT/BAT/Dave/Generated/DIGITAL_IO\digital_io.h **** *     }
 411:F:/GitHub Projects/FH Luzern/BAT/BAT/Dave/Generated/DIGITAL_IO\digital_io.h **** *     else
 412:F:/GitHub Projects/FH Luzern/BAT/BAT/Dave/Generated/DIGITAL_IO\digital_io.h **** *     {
 413:F:/GitHub Projects/FH Luzern/BAT/BAT/Dave/Generated/DIGITAL_IO\digital_io.h **** *       // Add application code here
 414:F:/GitHub Projects/FH Luzern/BAT/BAT/Dave/Generated/DIGITAL_IO\digital_io.h **** *     }
 415:F:/GitHub Projects/FH Luzern/BAT/BAT/Dave/Generated/DIGITAL_IO\digital_io.h **** *   }
 416:F:/GitHub Projects/FH Luzern/BAT/BAT/Dave/Generated/DIGITAL_IO\digital_io.h **** *   return (1);
 417:F:/GitHub Projects/FH Luzern/BAT/BAT/Dave/Generated/DIGITAL_IO\digital_io.h **** * }
 418:F:/GitHub Projects/FH Luzern/BAT/BAT/Dave/Generated/DIGITAL_IO\digital_io.h **** *  @endcode
 419:F:/GitHub Projects/FH Luzern/BAT/BAT/Dave/Generated/DIGITAL_IO\digital_io.h **** */
 420:F:/GitHub Projects/FH Luzern/BAT/BAT/Dave/Generated/DIGITAL_IO\digital_io.h **** 
 421:F:/GitHub Projects/FH Luzern/BAT/BAT/Dave/Generated/DIGITAL_IO\digital_io.h **** __STATIC_INLINE uint32_t DIGITAL_IO_GetInput(const DIGITAL_IO_t *const handler)
 422:F:/GitHub Projects/FH Luzern/BAT/BAT/Dave/Generated/DIGITAL_IO\digital_io.h **** {
 256              	 .loc 2 422 0
 257              	 .cfi_startproc
 258              	 
 259              	 
 260 0000 80B5     	 push {r7,lr}
 261              	.LCFI28:
 262              	 .cfi_def_cfa_offset 8
 263              	 .cfi_offset 7,-8
 264              	 .cfi_offset 14,-4
 265 0002 82B0     	 sub sp,sp,#8
 266              	.LCFI29:
 267              	 .cfi_def_cfa_offset 16
 268 0004 00AF     	 add r7,sp,#0
 269              	.LCFI30:
 270              	 .cfi_def_cfa_register 7
 271 0006 7860     	 str r0,[r7,#4]
 423:F:/GitHub Projects/FH Luzern/BAT/BAT/Dave/Generated/DIGITAL_IO\digital_io.h ****   XMC_ASSERT("DIGITAL_IO_GetInput: handler null pointer", handler != NULL);
 424:F:/GitHub Projects/FH Luzern/BAT/BAT/Dave/Generated/DIGITAL_IO\digital_io.h ****   return XMC_GPIO_GetInput(handler->gpio_port, handler->gpio_pin);
 272              	 .loc 2 424 0
 273 0008 7B68     	 ldr r3,[r7,#4]
 274 000a 1A68     	 ldr r2,[r3]
 275 000c 7B68     	 ldr r3,[r7,#4]
 276 000e 1B7C     	 ldrb r3,[r3,#16]
 277 0010 1046     	 mov r0,r2
 278 0012 1946     	 mov r1,r3
 279 0014 FFF7FEFF 	 bl XMC_GPIO_GetInput
 280 0018 0346     	 mov r3,r0
 425:F:/GitHub Projects/FH Luzern/BAT/BAT/Dave/Generated/DIGITAL_IO\digital_io.h **** }
 281              	 .loc 2 425 0
 282 001a 1846     	 mov r0,r3
 283 001c 0837     	 adds r7,r7,#8
 284              	.LCFI31:
 285              	 .cfi_def_cfa_offset 8
 286 001e BD46     	 mov sp,r7
 287              	.LCFI32:
 288              	 .cfi_def_cfa_register 13
 289              	 
 290 0020 80BD     	 pop {r7,pc}
 291              	 .cfi_endproc
 292              	.LFE242:
 294              	 .comm result,2,2
 295              	 .global __aeabi_i2d
 296              	 .global __aeabi_ddiv
 297              	 .global __aeabi_dsub
 298              	 .global __aeabi_dmul
 299              	 .global __aeabi_d2f
 300              	 .global __aeabi_f2d
 301 0022 00BF     	 .section .text.VADC0_C0_2_IRQHandler,"ax",%progbits
 302              	 .align 2
 303              	 .global VADC0_C0_2_IRQHandler
 304              	 .thumb
 305              	 .thumb_func
 307              	VADC0_C0_2_IRQHandler:
 308              	.LFB503:
 309              	 .file 3 "../main.c"
   1:../main.c     **** /*
   2:../main.c     ****  * main.c
   3:../main.c     ****  *
   4:../main.c     ****  *  Created on: 2019 Oct 12 16:21:53
   5:../main.c     ****  *  Author: Pescatore
   6:../main.c     ****  */
   7:../main.c     **** 
   8:../main.c     **** #include <DAVE.h>                 //Declarations from DAVE Code Generation (includes SFR declaratio
   9:../main.c     **** #include <math.h>
  10:../main.c     **** #include <stdio.h>
  11:../main.c     **** XMC_VADC_RESULT_SIZE_t result;
  12:../main.c     **** void Adc_Measurement_Handler() {
 310              	 .loc 3 12 0
 311              	 .cfi_startproc
 312              	 
 313              	 
 314 0000 80B5     	 push {r7,lr}
 315              	.LCFI33:
 316              	 .cfi_def_cfa_offset 8
 317              	 .cfi_offset 7,-8
 318              	 .cfi_offset 14,-4
 319 0002 2DED028B 	 fstmfdd sp!,{d8}
 320              	.LCFI34:
 321              	 .cfi_def_cfa_offset 16
 322              	 .cfi_offset 80,-16
 323              	 .cfi_offset 81,-12
 324 0006 84B0     	 sub sp,sp,#16
 325              	.LCFI35:
 326              	 .cfi_def_cfa_offset 32
 327 0008 00AF     	 add r7,sp,#0
 328              	.LCFI36:
 329              	 .cfi_def_cfa_register 7
  13:../main.c     **** #if(UC_SERIES != XMC11)
  14:../main.c     **** 	result = ADC_MEASUREMENT_GetResult(&ADC_MEASUREMENT_Channel_A);
 330              	 .loc 3 14 0
 331 000a 4948     	 ldr r0,.L10+24
 332 000c FFF7FEFF 	 bl ADC_MEASUREMENT_GetResult
 333 0010 0346     	 mov r3,r0
 334 0012 1A46     	 mov r2,r3
 335 0014 474B     	 ldr r3,.L10+28
 336 0016 1A80     	 strh r2,[r3]
  15:../main.c     **** 	float resistor = 10000 * (pow(2, 12) / result - 1);
 337              	 .loc 3 15 0
 338 0018 464B     	 ldr r3,.L10+28
 339 001a 1B88     	 ldrh r3,[r3]
 340 001c 1846     	 mov r0,r3
 341 001e FFF7FEFF 	 bl __aeabi_i2d
 342 0022 0246     	 mov r2,r0
 343 0024 0B46     	 mov r3,r1
 344 0026 4FF00000 	 mov r0,#0
 345 002a 4349     	 ldr r1,.L10+32
 346 002c FFF7FEFF 	 bl __aeabi_ddiv
 347 0030 0246     	 mov r2,r0
 348 0032 0B46     	 mov r3,r1
 349 0034 1046     	 mov r0,r2
 350 0036 1946     	 mov r1,r3
 351 0038 4FF00002 	 mov r2,#0
 352 003c 3F4B     	 ldr r3,.L10+36
 353 003e FFF7FEFF 	 bl __aeabi_dsub
 354 0042 0246     	 mov r2,r0
 355 0044 0B46     	 mov r3,r1
 356 0046 1046     	 mov r0,r2
 357 0048 1946     	 mov r1,r3
 358 004a 33A3     	 adr r3,.L10
 359 004c D3E90023 	 ldrd r2,[r3]
 360 0050 FFF7FEFF 	 bl __aeabi_dmul
 361 0054 0246     	 mov r2,r0
 362 0056 0B46     	 mov r3,r1
 363 0058 1046     	 mov r0,r2
 364 005a 1946     	 mov r1,r3
 365 005c FFF7FEFF 	 bl __aeabi_d2f
 366 0060 0346     	 mov r3,r0
 367 0062 FB60     	 str r3,[r7,#12]
  16:../main.c     **** 	float beta = 601.3;
 368              	 .loc 3 16 0
 369 0064 364B     	 ldr r3,.L10+40
 370 0066 BB60     	 str r3,[r7,#8]
  17:../main.c     **** 	float T = (((float)(beta * 298.15)) / (((float)(298.15 * log(resistor / 10000))) + beta))-273.15;
 371              	 .loc 3 17 0
 372 0068 B868     	 ldr r0,[r7,#8]
 373 006a FFF7FEFF 	 bl __aeabi_f2d
 374 006e 0246     	 mov r2,r0
 375 0070 0B46     	 mov r3,r1
 376 0072 1046     	 mov r0,r2
 377 0074 1946     	 mov r1,r3
 378 0076 2AA3     	 adr r3,.L10+8
 379 0078 D3E90023 	 ldrd r2,[r3]
 380 007c FFF7FEFF 	 bl __aeabi_dmul
 381 0080 0246     	 mov r2,r0
 382 0082 0B46     	 mov r3,r1
 383 0084 1046     	 mov r0,r2
 384 0086 1946     	 mov r1,r3
 385 0088 FFF7FEFF 	 bl __aeabi_d2f
 386 008c 08EE100A 	 fmsr s16,r0
 387 0090 D7ED037A 	 flds s15,[r7,#12]
 388 0094 9FED2B7A 	 flds s14,.L10+44
 389 0098 C7EE877A 	 fdivs s15,s15,s14
 390 009c 17EE900A 	 fmrs r0,s15
 391 00a0 FFF7FEFF 	 bl __aeabi_f2d
 392 00a4 0246     	 mov r2,r0
 393 00a6 0B46     	 mov r3,r1
 394 00a8 1046     	 mov r0,r2
 395 00aa 1946     	 mov r1,r3
 396 00ac FFF7FEFF 	 bl log
 397 00b0 0246     	 mov r2,r0
 398 00b2 0B46     	 mov r3,r1
 399 00b4 1046     	 mov r0,r2
 400 00b6 1946     	 mov r1,r3
 401 00b8 19A3     	 adr r3,.L10+8
 402 00ba D3E90023 	 ldrd r2,[r3]
 403 00be FFF7FEFF 	 bl __aeabi_dmul
 404 00c2 0246     	 mov r2,r0
 405 00c4 0B46     	 mov r3,r1
 406 00c6 1046     	 mov r0,r2
 407 00c8 1946     	 mov r1,r3
 408 00ca FFF7FEFF 	 bl __aeabi_d2f
 409 00ce 07EE100A 	 fmsr s14,r0
 410 00d2 D7ED027A 	 flds s15,[r7,#8]
 411 00d6 77EE277A 	 fadds s15,s14,s15
 412 00da C8EE277A 	 fdivs s15,s16,s15
 413 00de 17EE900A 	 fmrs r0,s15
 414 00e2 FFF7FEFF 	 bl __aeabi_f2d
 415 00e6 0246     	 mov r2,r0
 416 00e8 0B46     	 mov r3,r1
 417 00ea 1046     	 mov r0,r2
 418 00ec 1946     	 mov r1,r3
 419 00ee 0EA3     	 adr r3,.L10+16
 420 00f0 D3E90023 	 ldrd r2,[r3]
 421 00f4 FFF7FEFF 	 bl __aeabi_dsub
 422 00f8 0246     	 mov r2,r0
 423 00fa 0B46     	 mov r3,r1
 424 00fc 1046     	 mov r0,r2
 425 00fe 1946     	 mov r1,r3
 426 0100 FFF7FEFF 	 bl __aeabi_d2f
 427 0104 0346     	 mov r3,r0
 428 0106 7B60     	 str r3,[r7,#4]
  18:../main.c     **** 
  19:../main.c     **** //	printf("T_Ambient is %f\n", T);
  20:../main.c     **** #else
  21:../main.c     **** 	result = ADC_MEASUREMENT_GetGlobalResult();
  22:../main.c     **** #endif
  23:../main.c     **** 
  24:../main.c     **** 	if (result >= 2048) {
  25:../main.c     **** 		//   DIGITAL_IO_SetOutputLow(&DIGITAL_IO_0);
  26:../main.c     **** 	} else {
  27:../main.c     **** 		// DIGITAL_IO_SetOutputHigh(&DIGITAL_IO_0);
  28:../main.c     **** 	}
  29:../main.c     **** }
 429              	 .loc 3 29 0
 430 0108 1037     	 adds r7,r7,#16
 431              	.LCFI37:
 432              	 .cfi_def_cfa_offset 16
 433 010a BD46     	 mov sp,r7
 434              	.LCFI38:
 435              	 .cfi_def_cfa_register 13
 436              	 
 437 010c BDEC028B 	 fldmfdd sp!,{d8}
 438              	.LCFI39:
 439              	 .cfi_restore 80
 440              	 .cfi_restore 81
 441              	 .cfi_def_cfa_offset 8
 442 0110 80BD     	 pop {r7,pc}
 443              	.L11:
 444 0112 00BFAFF3 	 .align 3
 444      0080
 445              	.L10:
 446 0118 00000000 	 .word 0
 447 011c 0088C340 	 .word 1086556160
 448 0120 66666666 	 .word 1717986918
 449 0124 66A27240 	 .word 1081254502
 450 0128 66666666 	 .word 1717986918
 451 012c 66127140 	 .word 1081152102
 452 0130 00000000 	 .word ADC_MEASUREMENT_Channel_A_handle
 453 0134 00000000 	 .word result
 454 0138 0000B040 	 .word 1085276160
 455 013c 0000F03F 	 .word 1072693248
 456 0140 33531644 	 .word 1142313779
 457 0144 00401C46 	 .word 1176256512
 458              	 .cfi_endproc
 459              	.LFE503:
 461              	 .global data
 462              	 .section .data.data,"aw",%progbits
 463              	 .align 2
 466              	data:
 467 0000 42444120 	 .ascii "BDA Andy Fischer\000"
 467      416E6479 
 467      20466973 
 467      63686572 
 467      00
 468              	 .comm rec_data,10,4
 469 0011 000000   	 .section .text.EndofTransmit,"ax",%progbits
 470              	 .align 2
 471              	 .global EndofTransmit
 472              	 .thumb
 473              	 .thumb_func
 475              	EndofTransmit:
 476              	.LFB504:
  30:../main.c     **** 
  31:../main.c     **** /**
  32:../main.c     **** 
  33:../main.c     ****  * @brief main() - Application entry point
  34:../main.c     ****  *
  35:../main.c     ****  * <b>Details of function</b><br>
  36:../main.c     ****  * This routine is the application entry point. It is invoked by the device startup code. It is res
  37:../main.c     ****  * invoking the APP initialization dispatcher routine - DAVE_Init() and hosting the place-holder fo
  38:../main.c     ****  * code.
  39:../main.c     ****  */
  40:../main.c     **** 
  41:../main.c     **** uint8_t data[] = "BDA Andy Fischer";
  42:../main.c     **** 
  43:../main.c     **** uint8_t rec_data[10];
  44:../main.c     **** 
  45:../main.c     **** void EndofTransmit() //Callback function for "End of transmit" event.
  46:../main.c     **** 
  47:../main.c     **** {
 477              	 .loc 3 47 0
 478              	 .cfi_startproc
 479              	 
 480              	 
 481 0000 80B5     	 push {r7,lr}
 482              	.LCFI40:
 483              	 .cfi_def_cfa_offset 8
 484              	 .cfi_offset 7,-8
 485              	 .cfi_offset 14,-4
 486 0002 00AF     	 add r7,sp,#0
 487              	.LCFI41:
 488              	 .cfi_def_cfa_register 7
  48:../main.c     **** 	UART_Receive(&UART_0, rec_data, sizeof(rec_data));
 489              	 .loc 3 48 0
 490 0004 0448     	 ldr r0,.L13
 491 0006 0549     	 ldr r1,.L13+4
 492 0008 0A22     	 movs r2,#10
 493 000a FFF7FEFF 	 bl UART_Receive
  49:../main.c     **** 	DIGITAL_IO_SetOutputLow(&RS485_DIR); // ready to receive
 494              	 .loc 3 49 0
 495 000e 0448     	 ldr r0,.L13+8
 496 0010 FFF7FEFF 	 bl DIGITAL_IO_SetOutputLow
  50:../main.c     **** }
 497              	 .loc 3 50 0
 498 0014 80BD     	 pop {r7,pc}
 499              	.L14:
 500 0016 00BF     	 .align 2
 501              	.L13:
 502 0018 00000000 	 .word UART_0
 503 001c 00000000 	 .word rec_data
 504 0020 00000000 	 .word RS485_DIR
 505              	 .cfi_endproc
 506              	.LFE504:
 508              	 .section .text.EndofReceive,"ax",%progbits
 509              	 .align 2
 510              	 .global EndofReceive
 511              	 .thumb
 512              	 .thumb_func
 514              	EndofReceive:
 515              	.LFB505:
  51:../main.c     **** 
  52:../main.c     **** void EndofReceive() //Callback function for "End of receive" event.
  53:../main.c     **** 
  54:../main.c     **** {
 516              	 .loc 3 54 0
 517              	 .cfi_startproc
 518              	 
 519              	 
 520 0000 80B5     	 push {r7,lr}
 521              	.LCFI42:
 522              	 .cfi_def_cfa_offset 8
 523              	 .cfi_offset 7,-8
 524              	 .cfi_offset 14,-4
 525 0002 82B0     	 sub sp,sp,#8
 526              	.LCFI43:
 527              	 .cfi_def_cfa_offset 16
 528 0004 00AF     	 add r7,sp,#0
 529              	.LCFI44:
 530              	 .cfi_def_cfa_register 7
  55:../main.c     **** 	DIGITAL_IO_SetOutputHigh(&RS485_DIR);
 531              	 .loc 3 55 0
 532 0006 0948     	 ldr r0,.L16
 533 0008 FFF7FEFF 	 bl DIGITAL_IO_SetOutputHigh
  56:../main.c     **** 	char value = rec_data[0];
 534              	 .loc 3 56 0
 535 000c 084B     	 ldr r3,.L16+4
 536 000e 1B78     	 ldrb r3,[r3]
 537 0010 FB71     	 strb r3,[r7,#7]
  57:../main.c     **** 	if (value = 'a') {
 538              	 .loc 3 57 0
 539 0012 6123     	 movs r3,#97
 540 0014 FB71     	 strb r3,[r7,#7]
  58:../main.c     **** 		DIGITAL_IO_SetOutputHigh(&IO_Bit2);
 541              	 .loc 3 58 0
 542 0016 0748     	 ldr r0,.L16+8
 543 0018 FFF7FEFF 	 bl DIGITAL_IO_SetOutputHigh
  59:../main.c     **** 	}
  60:../main.c     **** 	UART_Transmit(&UART_0, rec_data, sizeof(rec_data));
 544              	 .loc 3 60 0
 545 001c 0648     	 ldr r0,.L16+12
 546 001e 0449     	 ldr r1,.L16+4
 547 0020 0A22     	 movs r2,#10
 548 0022 FFF7FEFF 	 bl UART_Transmit
  61:../main.c     **** }
 549              	 .loc 3 61 0
 550 0026 0837     	 adds r7,r7,#8
 551              	.LCFI45:
 552              	 .cfi_def_cfa_offset 8
 553 0028 BD46     	 mov sp,r7
 554              	.LCFI46:
 555              	 .cfi_def_cfa_register 13
 556              	 
 557 002a 80BD     	 pop {r7,pc}
 558              	.L17:
 559              	 .align 2
 560              	.L16:
 561 002c 00000000 	 .word RS485_DIR
 562 0030 00000000 	 .word rec_data
 563 0034 00000000 	 .word IO_Bit2
 564 0038 00000000 	 .word UART_0
 565              	 .cfi_endproc
 566              	.LFE505:
 568              	 .section .text.calculate_T_Amb,"ax",%progbits
 569              	 .align 2
 570              	 .global calculate_T_Amb
 571              	 .thumb
 572              	 .thumb_func
 574              	calculate_T_Amb:
 575              	.LFB506:
  62:../main.c     **** 
  63:../main.c     **** float calculate_T_Amb() {
 576              	 .loc 3 63 0
 577              	 .cfi_startproc
 578              	 
 579              	 
 580              	 
 581 0000 80B4     	 push {r7}
 582              	.LCFI47:
 583              	 .cfi_def_cfa_offset 4
 584              	 .cfi_offset 7,-4
 585 0002 00AF     	 add r7,sp,#0
 586              	.LCFI48:
 587              	 .cfi_def_cfa_register 7
  64:../main.c     **** 
  65:../main.c     **** }
 588              	 .loc 3 65 0
 589 0004 1846     	 mov r0,r3
 590 0006 BD46     	 mov sp,r7
 591              	.LCFI49:
 592              	 .cfi_def_cfa_register 13
 593              	 
 594 0008 5DF8047B 	 ldr r7,[sp],#4
 595              	.LCFI50:
 596              	 .cfi_restore 7
 597              	 .cfi_def_cfa_offset 0
 598 000c 7047     	 bx lr
 599              	 .cfi_endproc
 600              	.LFE506:
 602              	 .comm temp,4,4
 603              	 .global fan_flag
 604 000e 00BF     	 .section .bss.fan_flag,"aw",%nobits
 605              	 .align 2
 608              	fan_flag:
 609 0000 00000000 	 .space 4
 610              	 .global io_status
 611              	 .section .data.io_status,"aw",%progbits
 612              	 .align 2
 615              	io_status:
 616 0000 FFFFFFFF 	 .word -1
 617              	 .section .text.main,"ax",%progbits
 618              	 .align 2
 619              	 .global main
 620              	 .thumb
 621              	 .thumb_func
 623              	main:
 624              	.LFB507:
  66:../main.c     **** 
  67:../main.c     **** float temp;
  68:../main.c     **** int fan_flag = 0;
  69:../main.c     **** int io_status = -1;
  70:../main.c     **** int main(void) {
 625              	 .loc 3 70 0
 626              	 .cfi_startproc
 627              	 
 628              	 
 629 0000 80B5     	 push {r7,lr}
 630              	.LCFI51:
 631              	 .cfi_def_cfa_offset 8
 632              	 .cfi_offset 7,-8
 633              	 .cfi_offset 14,-4
 634 0002 82B0     	 sub sp,sp,#8
 635              	.LCFI52:
 636              	 .cfi_def_cfa_offset 16
 637 0004 00AF     	 add r7,sp,#0
 638              	.LCFI53:
 639              	 .cfi_def_cfa_register 7
  71:../main.c     **** 	DAVE_STATUS_t status;
  72:../main.c     **** 	uint32_t pin_status;
  73:../main.c     **** 	uint32_t delay_count;
  74:../main.c     **** 
  75:../main.c     **** 	status = DAVE_Init(); /* Initialization of DAVE APPs  */
 640              	 .loc 3 75 0
 641 0006 FFF7FEFF 	 bl DAVE_Init
 642 000a 0346     	 mov r3,r0
 643 000c FB71     	 strb r3,[r7,#7]
  76:../main.c     **** 
  77:../main.c     **** 	if (status != DAVE_STATUS_SUCCESS) {
 644              	 .loc 3 77 0
 645 000e FB79     	 ldrb r3,[r7,#7]
 646 0010 002B     	 cmp r3,#0
 647 0012 00D0     	 beq .L20
 648              	.L21:
  78:../main.c     **** 		/* Placeholder for error handler code. The while loop below can be replaced with an user error ha
  79:../main.c     **** 		XMC_DEBUG("DAVE APPs initialization failed\n");
  80:../main.c     **** 
  81:../main.c     **** 		while (1U) {
  82:../main.c     **** 
  83:../main.c     **** 		}
 649              	 .loc 3 83 0 discriminator 1
 650 0014 FEE7     	 b .L21
 651              	.L20:
  84:../main.c     **** 	}
  85:../main.c     **** 
  86:../main.c     **** 	DIGITAL_IO_SetOutputHigh(&DIGITAL_IO_6); // Enable RS485 Pin
 652              	 .loc 3 86 0
 653 0016 2148     	 ldr r0,.L27
 654 0018 FFF7FEFF 	 bl DIGITAL_IO_SetOutputHigh
  87:../main.c     **** 	DIGITAL_IO_SetOutputHigh(&RS485_DIR); // Direction RS485 Pin set to High to indicate that MCU want
 655              	 .loc 3 87 0
 656 001c 2048     	 ldr r0,.L27+4
 657 001e FFF7FEFF 	 bl DIGITAL_IO_SetOutputHigh
  88:../main.c     **** //UART_Transmit(&UART_0, data, sizeof(data) - 1); //Transmit the string "Infineon Technologies".
  89:../main.c     **** 
  90:../main.c     **** //DIGITAL_IO_SetOutputHigh(&DIGITAL_IO_4); // Power up Main heating
  91:../main.c     **** //DIGITAL_IO_SetOutputHigh(&DIGITAL_IO_5); // Power up aux heating
  92:../main.c     **** 
  93:../main.c     **** 	DIGITAL_IO_SetOutputLow(&IO_Bit0_DIR); // Set Input enable for IO Pin 0
 658              	 .loc 3 93 0
 659 0022 2048     	 ldr r0,.L27+8
 660 0024 FFF7FEFF 	 bl DIGITAL_IO_SetOutputLow
  94:../main.c     **** 	DIGITAL_IO_SetOutputLow(&IO_Bit1_DIR); // Set Input enable for IO Pin 1
 661              	 .loc 3 94 0
 662 0028 1F48     	 ldr r0,.L27+12
 663 002a FFF7FEFF 	 bl DIGITAL_IO_SetOutputLow
  95:../main.c     **** 	DIGITAL_IO_SetOutputLow(&IO_Bit3_DIR); // Set Input enable for IO Pin 3
 664              	 .loc 3 95 0
 665 002e 1F48     	 ldr r0,.L27+16
 666 0030 FFF7FEFF 	 bl DIGITAL_IO_SetOutputLow
  96:../main.c     **** 	DIGITAL_IO_SetOutputLow(&IO_Bit2_DIR); // Set Input enable for IO Pin 2
 667              	 .loc 3 96 0
 668 0034 1E48     	 ldr r0,.L27+20
 669 0036 FFF7FEFF 	 bl DIGITAL_IO_SetOutputLow
  97:../main.c     **** 
  98:../main.c     **** //DIGITAL_IO_SetOutputHigh(&DIGITAL_IO_23);// Set Output Pin 0 high
  99:../main.c     **** //DIGITAL_IO_SetOutputHigh(&DIGITAL_IO_22); // Set Output Pin 1 high
 100:../main.c     **** //DIGITAL_IO_SetOutputHigh(&DIGITAL_IO_21); // Set Output Pin 2 high
 101:../main.c     **** //DIGITAL_IO_SetOutputHigh(&DIGITAL_IO_24); // Set Output Pin 3 high
 102:../main.c     **** 
 103:../main.c     **** 	delay_count = 0;
 670              	 .loc 3 103 0
 671 003a 0023     	 movs r3,#0
 672 003c 3B60     	 str r3,[r7]
 104:../main.c     **** 
 105:../main.c     **** //ACIM_FREQ_CTRL_MotorStart(&ACIM_FREQ_CTRL_1);
 106:../main.c     **** 
 107:../main.c     **** 	/* Placeholder for user application code. The while loop below can be replaced with user applicati
 108:../main.c     **** 
 109:../main.c     **** 	DIGITAL_IO_SetOutputHigh(&Disable_Gate_Driver_M1_M2); // Set Output Pin 0 high
 673              	 .loc 3 109 0
 674 003e 1D48     	 ldr r0,.L27+24
 675 0040 FFF7FEFF 	 bl DIGITAL_IO_SetOutputHigh
 110:../main.c     **** 	DIGITAL_IO_SetOutputHigh(&Disable_Gate_Driver_M3); // Set Output Pin 0 high
 676              	 .loc 3 110 0
 677 0044 1C48     	 ldr r0,.L27+28
 678 0046 FFF7FEFF 	 bl DIGITAL_IO_SetOutputHigh
 679              	.L26:
 111:../main.c     **** 
 112:../main.c     **** 
 113:../main.c     **** 
 114:../main.c     **** 
 115:../main.c     **** //ACIM_FREQ_CTRL_MotorStart(&ACIM_FREQ_CTRL_0);
 116:../main.c     **** 
 117:../main.c     **** 	while (1U) {
 118:../main.c     **** 
 119:../main.c     **** 		// DIGITAL_IO_ToggleOutput(&DIGITAL_IO_0);
 120:../main.c     **** 		// for(delay_count = 0;delay_count<0xfffff;delay_count++);
 121:../main.c     **** 		//    delay_count = delay_count + 10;
 122:../main.c     **** 		// pin_status = DIGITAL_IO_GetInput(&DIGITAL_IO_23);
 123:../main.c     **** 
 124:../main.c     **** 		if (((!fan_flag) && DIGITAL_IO_GetInput(&IO_Bit0))||(DIGITAL_IO_GetInput(&HS_Overtemp))) {
 680              	 .loc 3 124 0
 681 004a 1C4B     	 ldr r3,.L27+32
 682 004c 1B68     	 ldr r3,[r3]
 683 004e 002B     	 cmp r3,#0
 684 0050 05D1     	 bne .L22
 685              	 .loc 3 124 0 is_stmt 0 discriminator 1
 686 0052 1B48     	 ldr r0,.L27+36
 687 0054 FFF7FEFF 	 bl DIGITAL_IO_GetInput
 688 0058 0346     	 mov r3,r0
 689 005a 002B     	 cmp r3,#0
 690 005c 05D1     	 bne .L23
 691              	.L22:
 692              	 .loc 3 124 0 discriminator 3
 693 005e 1948     	 ldr r0,.L27+40
 694 0060 FFF7FEFF 	 bl DIGITAL_IO_GetInput
 695 0064 0346     	 mov r3,r0
 696 0066 002B     	 cmp r3,#0
 697 0068 06D0     	 beq .L24
 698              	.L23:
 125:../main.c     **** 			fan_flag = 1;
 699              	 .loc 3 125 0 is_stmt 1
 700 006a 144B     	 ldr r3,.L27+32
 701 006c 0122     	 movs r2,#1
 702 006e 1A60     	 str r2,[r3]
 126:../main.c     **** 			DIGITAL_IO_SetOutputHigh(&Cooling_FAN); // Power up cooling fan
 703              	 .loc 3 126 0
 704 0070 1548     	 ldr r0,.L27+44
 705 0072 FFF7FEFF 	 bl DIGITAL_IO_SetOutputHigh
 706 0076 0FE0     	 b .L25
 707              	.L24:
 127:../main.c     **** 		}
 128:../main.c     **** 
 129:../main.c     **** 		else if (fan_flag && DIGITAL_IO_GetInput(&IO_Bit1)) {
 708              	 .loc 3 129 0
 709 0078 104B     	 ldr r3,.L27+32
 710 007a 1B68     	 ldr r3,[r3]
 711 007c 002B     	 cmp r3,#0
 712 007e 0BD0     	 beq .L25
 713              	 .loc 3 129 0 is_stmt 0 discriminator 1
 714 0080 1248     	 ldr r0,.L27+48
 715 0082 FFF7FEFF 	 bl DIGITAL_IO_GetInput
 716 0086 0346     	 mov r3,r0
 717 0088 002B     	 cmp r3,#0
 718 008a 05D0     	 beq .L25
 130:../main.c     **** 			fan_flag = 0;
 719              	 .loc 3 130 0 is_stmt 1
 720 008c 0B4B     	 ldr r3,.L27+32
 721 008e 0022     	 movs r2,#0
 722 0090 1A60     	 str r2,[r3]
 131:../main.c     **** 			DIGITAL_IO_SetOutputLow(&Cooling_FAN); // Power down cooling fan
 723              	 .loc 3 131 0
 724 0092 0D48     	 ldr r0,.L27+44
 725 0094 FFF7FEFF 	 bl DIGITAL_IO_SetOutputLow
 726              	.L25:
 132:../main.c     **** 		}
 133:../main.c     **** 
 134:../main.c     **** 
 135:../main.c     **** 		// DIGITAL_IO_ToggleOutput(&DIGITAL_IO_23); // toggle PIN 0
 136:../main.c     **** 		// DIGITAL_IO_ToggleOutput(&DIGITAL_IO_22); // toggle PIN 1
 137:../main.c     **** 		// DIGITAL_IO_ToggleOutput(&DIGITAL_IO_21); // toggle PIN 2
 138:../main.c     **** 		// DIGITAL_IO_ToggleOutput(&DIGITAL_IO_24); // toggle PIN 3
 139:../main.c     **** 
 140:../main.c     **** 
 141:../main.c     **** 		//ADC_MEASUREMENT_StartConversion(&ADC_MEASUREMENT_0);
 142:../main.c     **** 
 143:../main.c     **** 		//temp = calculate_T_Amb();
 144:../main.c     **** 
 145:../main.c     **** 	}
 727              	 .loc 3 145 0
 728 0098 D7E7     	 b .L26
 729              	.L28:
 730 009a 00BF     	 .align 2
 731              	.L27:
 732 009c 00000000 	 .word DIGITAL_IO_6
 733 00a0 00000000 	 .word RS485_DIR
 734 00a4 00000000 	 .word IO_Bit0_DIR
 735 00a8 00000000 	 .word IO_Bit1_DIR
 736 00ac 00000000 	 .word IO_Bit3_DIR
 737 00b0 00000000 	 .word IO_Bit2_DIR
 738 00b4 00000000 	 .word Disable_Gate_Driver_M1_M2
 739 00b8 00000000 	 .word Disable_Gate_Driver_M3
 740 00bc 00000000 	 .word fan_flag
 741 00c0 00000000 	 .word IO_Bit0
 742 00c4 00000000 	 .word HS_Overtemp
 743 00c8 00000000 	 .word Cooling_FAN
 744 00cc 00000000 	 .word IO_Bit1
 745              	 .cfi_endproc
 746              	.LFE507:
 748              	 .text
 749              	.Letext0:
 750              	 .file 4 "c:\\users\\pescatore\\switchdrive\\private\\konzept\\mcu for gate driver\\dave_4-4-2_64bit_2018-02-23\\dave-ide-4.4.2-64bit\\eclipse\\arm-gcc-49\\arm-none-eabi\\include\\machine\\_default_types.h"
 751              	 .file 5 "c:\\users\\pescatore\\switchdrive\\private\\konzept\\mcu for gate driver\\dave_4-4-2_64bit_2018-02-23\\dave-ide-4.4.2-64bit\\eclipse\\arm-gcc-49\\arm-none-eabi\\include\\stdint.h"
 752              	 .file 6 "F:/GitHub Projects/FH Luzern/BAT/BAT/Libraries/CMSIS/Infineon/XMC4400_series/Include/XMC4400.h"
 753              	 .file 7 "F:/GitHub Projects/FH Luzern/BAT/BAT/Libraries/XMCLib/inc/xmc4_gpio.h"
 754              	 .file 8 "F:/GitHub Projects/FH Luzern/BAT/BAT/Dave/Generated/ACIM_FREQ_CTRL/acim_freq_ctrl.h"
 755              	 .file 9 "F:/GitHub Projects/FH Luzern/BAT/BAT/Libraries/XMCLib/inc/xmc_usic.h"
 756              	 .file 10 "F:/GitHub Projects/FH Luzern/BAT/BAT/Libraries/XMCLib/inc/xmc_uart.h"
 757              	 .file 11 "F:/GitHub Projects/FH Luzern/BAT/BAT/Dave/Generated/UART/uart.h"
 758              	 .file 12 "F:/GitHub Projects/FH Luzern/BAT/BAT/Libraries/XMCLib/inc/xmc_vadc.h"
 759              	 .file 13 "F:/GitHub Projects/FH Luzern/BAT/BAT/Dave/Generated/ANALOG_IO/analog_io.h"
 760              	 .file 14 "F:/GitHub Projects/FH Luzern/BAT/BAT/Dave/Generated/ADC_MEASUREMENT/adc_measurement.h"
 761              	 .file 15 "F:/GitHub Projects/FH Luzern/BAT/BAT/Dave/Generated/DAVE.h"
 762              	 .file 16 "F:/GitHub Projects/FH Luzern/BAT/BAT/Libraries/CMSIS/Include/core_cm4.h"
 763              	 .file 17 "F:/GitHub Projects/FH Luzern/BAT/BAT/Libraries/CMSIS/Infineon/XMC4400_series/Include/system_XMC4400.h"
 764              	 .file 18 "F:/GitHub Projects/FH Luzern/BAT/BAT/Dave/Generated/DIGITAL_IO/digital_io_extern.h"
 765              	 .file 19 "F:/GitHub Projects/FH Luzern/BAT/BAT/Dave/Generated/UART/uart_extern.h"
 766              	 .file 20 "F:/GitHub Projects/FH Luzern/BAT/BAT/Dave/Generated/ADC_MEASUREMENT/ADC_MEASUREMENT_Extern.h"